ARM GAS  C:\Users\daani\AppData\Local\Temp\cc3tWZB8.s 			page 1


   1              		.syntax unified
   2              		.cpu cortex-m3
   3              		.fpu softvfp
   4              		.eabi_attribute 20, 1
   5              		.eabi_attribute 21, 1
   6              		.eabi_attribute 23, 3
   7              		.eabi_attribute 24, 1
   8              		.eabi_attribute 25, 1
   9              		.eabi_attribute 26, 1
  10              		.eabi_attribute 30, 1
  11              		.eabi_attribute 34, 1
  12              		.eabi_attribute 18, 4
  13              		.thumb
  14              		.syntax unified
  15              		.file	"colour.c"
  16              		.text
  17              	.Ltext0:
  18              		.cfi_sections	.debug_frame
  19              		.section	.text.LED,"ax",%progbits
  20              		.align	2
  21              		.global	LED
  22              		.thumb
  23              		.thumb_func
  24              		.type	LED, %function
  25              	LED:
  26              	.LFB63:
  27              		.file 1 "colour.c"
   1:colour.c      **** /* ========================================
   2:colour.c      ****  *
   3:colour.c      ****  * Copyright YOUR COMPANY, THE YEAR
   4:colour.c      ****  * All Rights Reserved
   5:colour.c      ****  * UNPUBLISHED, LICENSED SOFTWARE.
   6:colour.c      ****  *
   7:colour.c      ****  * CONFIDENTIAL AND PROPRIETARY INFORMATION
   8:colour.c      ****  * WHICH IS THE PROPERTY OF your company.
   9:colour.c      ****  *
  10:colour.c      ****  * ========================================
  11:colour.c      **** */
  12:colour.c      **** 
  13:colour.c      **** /* [] END OF FILE */
  14:colour.c      **** #include <project.h>
  15:colour.c      **** 
  16:colour.c      **** int32 red;
  17:colour.c      **** int32 blue;
  18:colour.c      **** int32 green;
  19:colour.c      **** 
  20:colour.c      **** int LED() 
  21:colour.c      **** {
  28              		.loc 1 21 0
  29              		.cfi_startproc
  30              		@ args = 0, pretend = 0, frame = 0
  31              		@ frame_needed = 0, uses_anonymous_args = 0
  32 0000 F8B5     		push	{r3, r4, r5, r6, r7, lr}
  33              		.cfi_def_cfa_offset 24
  34              		.cfi_offset 3, -24
  35              		.cfi_offset 4, -20
  36              		.cfi_offset 5, -16
ARM GAS  C:\Users\daani\AppData\Local\Temp\cc3tWZB8.s 			page 2


  37              		.cfi_offset 6, -12
  38              		.cfi_offset 7, -8
  39              		.cfi_offset 14, -4
  22:colour.c      ****     red = 0;
  40              		.loc 1 22 0
  41 0002 554E     		ldr	r6, .L7
  42 0004 0024     		movs	r4, #0
  43 0006 3460     		str	r4, [r6]
  23:colour.c      ****     green = 0;
  44              		.loc 1 23 0
  45 0008 544F     		ldr	r7, .L7+4
  46 000a 3C60     		str	r4, [r7]
  24:colour.c      ****     blue = 0;
  47              		.loc 1 24 0
  48 000c 544D     		ldr	r5, .L7+8
  49 000e 2C60     		str	r4, [r5]
  50              	.LVL0:
  25:colour.c      ****     
  26:colour.c      ****     int colour = 0;
  27:colour.c      ****     
  28:colour.c      ****     LED_Blue_Write(0);
  51              		.loc 1 28 0
  52 0010 2046     		mov	r0, r4
  53 0012 FFF7FEFF 		bl	LED_Blue_Write
  54              	.LVL1:
  29:colour.c      ****     LED_Red_Write(0);
  55              		.loc 1 29 0
  56 0016 2046     		mov	r0, r4
  57 0018 FFF7FEFF 		bl	LED_Red_Write
  58              	.LVL2:
  30:colour.c      ****     LED_Green_Write(0);
  59              		.loc 1 30 0
  60 001c 2046     		mov	r0, r4
  61 001e FFF7FEFF 		bl	LED_Green_Write
  62              	.LVL3:
  31:colour.c      ****     
  32:colour.c      ****     CyDelay(10);
  63              		.loc 1 32 0
  64 0022 0A20     		movs	r0, #10
  65 0024 FFF7FEFF 		bl	CyDelay
  66              	.LVL4:
  33:colour.c      ****     
  34:colour.c      ****     IDAC8_Wakeup();
  67              		.loc 1 34 0
  68 0028 FFF7FEFF 		bl	IDAC8_Wakeup
  69              	.LVL5:
  35:colour.c      ****     LED_Red_Write(1);
  70              		.loc 1 35 0
  71 002c 0120     		movs	r0, #1
  72 002e FFF7FEFF 		bl	LED_Red_Write
  73              	.LVL6:
  36:colour.c      ****     CyDelay(40);
  74              		.loc 1 36 0
  75 0032 2820     		movs	r0, #40
  76 0034 FFF7FEFF 		bl	CyDelay
  77              	.LVL7:
  37:colour.c      ****     ADC_StartConvert();
ARM GAS  C:\Users\daani\AppData\Local\Temp\cc3tWZB8.s 			page 3


  78              		.loc 1 37 0
  79 0038 FFF7FEFF 		bl	ADC_StartConvert
  80              	.LVL8:
  38:colour.c      ****     ADC_IsEndConversion(ADC_WAIT_FOR_RESULT);
  81              		.loc 1 38 0
  82 003c 2046     		mov	r0, r4
  83 003e FFF7FEFF 		bl	ADC_IsEndConversion
  84              	.LVL9:
  39:colour.c      ****     red = ADC_GetResult32();
  85              		.loc 1 39 0
  86 0042 FFF7FEFF 		bl	ADC_GetResult32
  87              	.LVL10:
  88 0046 3060     		str	r0, [r6]
  40:colour.c      ****     LED_Red_Write(0);
  89              		.loc 1 40 0
  90 0048 2046     		mov	r0, r4
  91 004a FFF7FEFF 		bl	LED_Red_Write
  92              	.LVL11:
  41:colour.c      ****     IDAC8_Sleep();
  93              		.loc 1 41 0
  94 004e FFF7FEFF 		bl	IDAC8_Sleep
  95              	.LVL12:
  42:colour.c      ****     
  43:colour.c      ****     CyDelay(10);
  96              		.loc 1 43 0
  97 0052 0A20     		movs	r0, #10
  98 0054 FFF7FEFF 		bl	CyDelay
  99              	.LVL13:
  44:colour.c      ****     
  45:colour.c      ****     IDAC8_Wakeup();
 100              		.loc 1 45 0
 101 0058 FFF7FEFF 		bl	IDAC8_Wakeup
 102              	.LVL14:
  46:colour.c      ****     LED_Green_Write(1);
 103              		.loc 1 46 0
 104 005c 0120     		movs	r0, #1
 105 005e FFF7FEFF 		bl	LED_Green_Write
 106              	.LVL15:
  47:colour.c      ****     CyDelay(40);
 107              		.loc 1 47 0
 108 0062 2820     		movs	r0, #40
 109 0064 FFF7FEFF 		bl	CyDelay
 110              	.LVL16:
  48:colour.c      ****     ADC_StartConvert();
 111              		.loc 1 48 0
 112 0068 FFF7FEFF 		bl	ADC_StartConvert
 113              	.LVL17:
  49:colour.c      ****     ADC_IsEndConversion(ADC_WAIT_FOR_RESULT);
 114              		.loc 1 49 0
 115 006c 2046     		mov	r0, r4
 116 006e FFF7FEFF 		bl	ADC_IsEndConversion
 117              	.LVL18:
  50:colour.c      ****     green = ADC_GetResult32();
 118              		.loc 1 50 0
 119 0072 FFF7FEFF 		bl	ADC_GetResult32
 120              	.LVL19:
 121 0076 3860     		str	r0, [r7]
ARM GAS  C:\Users\daani\AppData\Local\Temp\cc3tWZB8.s 			page 4


  51:colour.c      ****     LED_Green_Write(0);
 122              		.loc 1 51 0
 123 0078 2046     		mov	r0, r4
 124 007a FFF7FEFF 		bl	LED_Green_Write
 125              	.LVL20:
  52:colour.c      ****     IDAC8_Sleep();
 126              		.loc 1 52 0
 127 007e FFF7FEFF 		bl	IDAC8_Sleep
 128              	.LVL21:
  53:colour.c      ****     
  54:colour.c      ****     CyDelay(10);
 129              		.loc 1 54 0
 130 0082 0A20     		movs	r0, #10
 131 0084 FFF7FEFF 		bl	CyDelay
 132              	.LVL22:
  55:colour.c      ****     
  56:colour.c      ****     IDAC8_Wakeup();
 133              		.loc 1 56 0
 134 0088 FFF7FEFF 		bl	IDAC8_Wakeup
 135              	.LVL23:
  57:colour.c      ****     LED_Blue_Write(1);
 136              		.loc 1 57 0
 137 008c 0120     		movs	r0, #1
 138 008e FFF7FEFF 		bl	LED_Blue_Write
 139              	.LVL24:
  58:colour.c      ****     CyDelay(40);
 140              		.loc 1 58 0
 141 0092 2820     		movs	r0, #40
 142 0094 FFF7FEFF 		bl	CyDelay
 143              	.LVL25:
  59:colour.c      ****     ADC_StartConvert();
 144              		.loc 1 59 0
 145 0098 FFF7FEFF 		bl	ADC_StartConvert
 146              	.LVL26:
  60:colour.c      ****     ADC_IsEndConversion(ADC_WAIT_FOR_RESULT);
 147              		.loc 1 60 0
 148 009c 2046     		mov	r0, r4
 149 009e FFF7FEFF 		bl	ADC_IsEndConversion
 150              	.LVL27:
  61:colour.c      ****     blue = ADC_GetResult32();
 151              		.loc 1 61 0
 152 00a2 FFF7FEFF 		bl	ADC_GetResult32
 153              	.LVL28:
 154 00a6 2860     		str	r0, [r5]
  62:colour.c      ****     LED_Blue_Write(0);
 155              		.loc 1 62 0
 156 00a8 2046     		mov	r0, r4
 157 00aa FFF7FEFF 		bl	LED_Blue_Write
 158              	.LVL29:
  63:colour.c      ****     IDAC8_Sleep();
 159              		.loc 1 63 0
 160 00ae FFF7FEFF 		bl	IDAC8_Sleep
 161              	.LVL30:
  64:colour.c      ****     
  65:colour.c      ****     CyDelay(200);
 162              		.loc 1 65 0
 163 00b2 C820     		movs	r0, #200
ARM GAS  C:\Users\daani\AppData\Local\Temp\cc3tWZB8.s 			page 5


 164 00b4 FFF7FEFF 		bl	CyDelay
 165              	.LVL31:
  66:colour.c      ****     
  67:colour.c      ****     if ((red-blue > 4000) && (red-green > 4000))
 166              		.loc 1 67 0
 167 00b8 3368     		ldr	r3, [r6]
 168 00ba 2A68     		ldr	r2, [r5]
 169 00bc 991A     		subs	r1, r3, r2
 170 00be B1F57A6F 		cmp	r1, #4000
 171 00c2 10DD     		ble	.L2
 172              		.loc 1 67 0 is_stmt 0 discriminator 1
 173 00c4 3968     		ldr	r1, [r7]
 174 00c6 591A     		subs	r1, r3, r1
 175 00c8 B1F57A6F 		cmp	r1, #4000
 176 00cc 0BDD     		ble	.L2
  68:colour.c      ****     {
  69:colour.c      ****         LED_Red_Write(1);
 177              		.loc 1 69 0 is_stmt 1
 178 00ce 0120     		movs	r0, #1
 179 00d0 FFF7FEFF 		bl	LED_Red_Write
 180              	.LVL32:
  70:colour.c      ****         colour = 1;
  71:colour.c      ****         CyDelay(1000);
 181              		.loc 1 71 0
 182 00d4 4FF47A70 		mov	r0, #1000
 183 00d8 FFF7FEFF 		bl	CyDelay
 184              	.LVL33:
  72:colour.c      ****         LED_Red_Write(0);
 185              		.loc 1 72 0
 186 00dc 2046     		mov	r0, r4
 187 00de FFF7FEFF 		bl	LED_Red_Write
 188              	.LVL34:
  70:colour.c      ****         colour = 1;
 189              		.loc 1 70 0
 190 00e2 0120     		movs	r0, #1
 191              		.loc 1 72 0
 192 00e4 F8BD     		pop	{r3, r4, r5, r6, r7, pc}
 193              	.LVL35:
 194              	.L2:
  73:colour.c      ****     }
  74:colour.c      ****     else if ((green-red > 4000) && (green-blue > 4000))
 195              		.loc 1 74 0
 196 00e6 1D49     		ldr	r1, .L7+4
 197 00e8 0968     		ldr	r1, [r1]
 198 00ea C81A     		subs	r0, r1, r3
 199 00ec B0F57A6F 		cmp	r0, #4000
 200 00f0 0FDD     		ble	.L4
 201              		.loc 1 74 0 is_stmt 0 discriminator 1
 202 00f2 881A     		subs	r0, r1, r2
 203 00f4 B0F57A6F 		cmp	r0, #4000
 204 00f8 0BDD     		ble	.L4
  75:colour.c      ****     {
  76:colour.c      ****         LED_Green_Write(1);
 205              		.loc 1 76 0 is_stmt 1
 206 00fa 0120     		movs	r0, #1
 207 00fc FFF7FEFF 		bl	LED_Green_Write
 208              	.LVL36:
ARM GAS  C:\Users\daani\AppData\Local\Temp\cc3tWZB8.s 			page 6


  77:colour.c      ****         colour = 2;
  78:colour.c      ****         CyDelay(500);
 209              		.loc 1 78 0
 210 0100 4FF4FA70 		mov	r0, #500
 211 0104 FFF7FEFF 		bl	CyDelay
 212              	.LVL37:
  79:colour.c      ****         LED_Green_Write(0);
 213              		.loc 1 79 0
 214 0108 0020     		movs	r0, #0
 215 010a FFF7FEFF 		bl	LED_Green_Write
 216              	.LVL38:
  77:colour.c      ****         colour = 2;
 217              		.loc 1 77 0
 218 010e 0220     		movs	r0, #2
 219              		.loc 1 79 0
 220 0110 F8BD     		pop	{r3, r4, r5, r6, r7, pc}
 221              	.LVL39:
 222              	.L4:
  80:colour.c      ****     }
  81:colour.c      ****     else if ((blue-red > 4000) && (blue-green > 4000))
 223              		.loc 1 81 0
 224 0112 D31A     		subs	r3, r2, r3
 225 0114 B3F57A6F 		cmp	r3, #4000
 226 0118 0FDD     		ble	.L5
 227              		.loc 1 81 0 is_stmt 0 discriminator 1
 228 011a 521A     		subs	r2, r2, r1
 229 011c B2F57A6F 		cmp	r2, #4000
 230 0120 0BDD     		ble	.L5
  82:colour.c      ****     {
  83:colour.c      ****         LED_Blue_Write(1);
 231              		.loc 1 83 0 is_stmt 1
 232 0122 0120     		movs	r0, #1
 233 0124 FFF7FEFF 		bl	LED_Blue_Write
 234              	.LVL40:
  84:colour.c      ****         colour = 3;
  85:colour.c      ****         CyDelay(500);
 235              		.loc 1 85 0
 236 0128 4FF4FA70 		mov	r0, #500
 237 012c FFF7FEFF 		bl	CyDelay
 238              	.LVL41:
  86:colour.c      ****         LED_Blue_Write(0);
 239              		.loc 1 86 0
 240 0130 0020     		movs	r0, #0
 241 0132 FFF7FEFF 		bl	LED_Blue_Write
 242              	.LVL42:
  84:colour.c      ****         colour = 3;
 243              		.loc 1 84 0
 244 0136 0320     		movs	r0, #3
 245              		.loc 1 86 0
 246 0138 F8BD     		pop	{r3, r4, r5, r6, r7, pc}
 247              	.LVL43:
 248              	.L5:
  87:colour.c      ****     }
  88:colour.c      ****     else
  89:colour.c      ****     {  
  90:colour.c      ****         LED_Red_Write(0);
 249              		.loc 1 90 0
ARM GAS  C:\Users\daani\AppData\Local\Temp\cc3tWZB8.s 			page 7


 250 013a 0020     		movs	r0, #0
 251 013c FFF7FEFF 		bl	LED_Red_Write
 252              	.LVL44:
  91:colour.c      ****         LED_Green_Write(0);
 253              		.loc 1 91 0
 254 0140 0020     		movs	r0, #0
 255 0142 FFF7FEFF 		bl	LED_Green_Write
 256              	.LVL45:
  92:colour.c      ****         LED_Blue_Write(0);
 257              		.loc 1 92 0
 258 0146 0020     		movs	r0, #0
 259 0148 FFF7FEFF 		bl	LED_Blue_Write
 260              	.LVL46:
  93:colour.c      ****         CyDelay(500);
 261              		.loc 1 93 0
 262 014c 4FF4FA70 		mov	r0, #500
 263 0150 FFF7FEFF 		bl	CyDelay
 264              	.LVL47:
  26:colour.c      ****     
 265              		.loc 1 26 0
 266 0154 0020     		movs	r0, #0
 267              	.LVL48:
  94:colour.c      ****     }
  95:colour.c      ****     
  96:colour.c      ****     return colour;
  97:colour.c      ****     //LED_Write(0);
  98:colour.c      **** }...
 268              		.loc 1 98 0
 269 0156 F8BD     		pop	{r3, r4, r5, r6, r7, pc}
 270              	.LVL49:
 271              	.L8:
 272              		.align	2
 273              	.L7:
 274 0158 00000000 		.word	red
 275 015c 00000000 		.word	green
 276 0160 00000000 		.word	blue
 277              		.cfi_endproc
 278              	.LFE63:
 279              		.size	LED, .-LED
 280              		.comm	green,4,4
 281              		.comm	blue,4,4
 282              		.comm	red,4,4
 283              		.text
 284              	.Letext0:
 285              		.file 2 "c:\\program files (x86)\\cypress\\psoc creator\\4.1\\psoc creator\\import\\gnu\\arm\\5.4.
 286              		.file 3 "c:\\program files (x86)\\cypress\\psoc creator\\4.1\\psoc creator\\import\\gnu\\arm\\5.4.
 287              		.file 4 "Generated_Source\\PSoC5/cytypes.h"
 288              		.file 5 "Generated_Source\\PSoC5/core_cm3.h"
 289              		.file 6 "Generated_Source\\PSoC5/LED_Blue.h"
 290              		.file 7 "Generated_Source\\PSoC5/LED_Red.h"
 291              		.file 8 "Generated_Source\\PSoC5/LED_Green.h"
 292              		.file 9 "Generated_Source\\PSoC5/CyLib.h"
 293              		.file 10 "Generated_Source\\PSoC5/IDAC8.h"
 294              		.file 11 "Generated_Source\\PSoC5/ADC.h"