ARM GAS  C:\Users\daani\AppData\Local\Temp\ccUeLPWl.s 			page 1


   1              		.syntax unified
   2              		.cpu cortex-m3
   3              		.fpu softvfp
   4              		.eabi_attribute 20, 1
   5              		.eabi_attribute 21, 1
   6              		.eabi_attribute 23, 3
   7              		.eabi_attribute 24, 1
   8              		.eabi_attribute 25, 1
   9              		.eabi_attribute 26, 1
  10              		.eabi_attribute 30, 1
  11              		.eabi_attribute 34, 1
  12              		.eabi_attribute 18, 4
  13              		.thumb
  14              		.syntax unified
  15              		.file	"cyfitter_cfg.c"
  16              		.text
  17              	.Ltext0:
  18              		.cfi_sections	.debug_frame
  19              		.section	.text.CyClockStartupError,"ax",%progbits
  20              		.align	2
  21              		.thumb
  22              		.thumb_func
  23              		.type	CyClockStartupError, %function
  24              	CyClockStartupError:
  25              	.LFB3:
  26              		.file 1 "Generated_Source\\PSoC5\\cyfitter_cfg.c"
   1:Generated_Source\PSoC5/cyfitter_cfg.c **** 
   2:Generated_Source\PSoC5/cyfitter_cfg.c **** /*******************************************************************************
   3:Generated_Source\PSoC5/cyfitter_cfg.c **** * File Name: cyfitter_cfg.c
   4:Generated_Source\PSoC5/cyfitter_cfg.c **** * 
   5:Generated_Source\PSoC5/cyfitter_cfg.c **** * PSoC Creator  4.1 Update 1
   6:Generated_Source\PSoC5/cyfitter_cfg.c **** *
   7:Generated_Source\PSoC5/cyfitter_cfg.c **** * Description:
   8:Generated_Source\PSoC5/cyfitter_cfg.c **** * This file contains device initialization code.
   9:Generated_Source\PSoC5/cyfitter_cfg.c **** * Except for the user defined sections in CyClockStartupError(), this file should not be modified.
  10:Generated_Source\PSoC5/cyfitter_cfg.c **** * This file is automatically generated by PSoC Creator.
  11:Generated_Source\PSoC5/cyfitter_cfg.c **** *
  12:Generated_Source\PSoC5/cyfitter_cfg.c **** ********************************************************************************
  13:Generated_Source\PSoC5/cyfitter_cfg.c **** * Copyright (c) 2007-2017 Cypress Semiconductor.  All rights reserved.
  14:Generated_Source\PSoC5/cyfitter_cfg.c **** * You may use this file only in accordance with the license, terms, conditions, 
  15:Generated_Source\PSoC5/cyfitter_cfg.c **** * disclaimers, and limitations in the end user license agreement accompanying 
  16:Generated_Source\PSoC5/cyfitter_cfg.c **** * the software package with which this file was provided.
  17:Generated_Source\PSoC5/cyfitter_cfg.c **** ********************************************************************************/
  18:Generated_Source\PSoC5/cyfitter_cfg.c **** 
  19:Generated_Source\PSoC5/cyfitter_cfg.c **** #include <string.h>
  20:Generated_Source\PSoC5/cyfitter_cfg.c **** #include "cytypes.h"
  21:Generated_Source\PSoC5/cyfitter_cfg.c **** #include "cydevice_trm.h"
  22:Generated_Source\PSoC5/cyfitter_cfg.c **** #include "cyfitter.h"
  23:Generated_Source\PSoC5/cyfitter_cfg.c **** #include "CyLib.h"
  24:Generated_Source\PSoC5/cyfitter_cfg.c **** #include "cyfitter_cfg.h"
  25:Generated_Source\PSoC5/cyfitter_cfg.c **** #include "cyapicallbacks.h"
  26:Generated_Source\PSoC5/cyfitter_cfg.c **** 
  27:Generated_Source\PSoC5/cyfitter_cfg.c **** #define CY_NEED_CYCLOCKSTARTUPERROR 1
  28:Generated_Source\PSoC5/cyfitter_cfg.c **** 
  29:Generated_Source\PSoC5/cyfitter_cfg.c **** 
  30:Generated_Source\PSoC5/cyfitter_cfg.c **** #if defined(__GNUC__) || defined(__ARMCC_VERSION)
  31:Generated_Source\PSoC5/cyfitter_cfg.c ****     #define CYPACKED 
ARM GAS  C:\Users\daani\AppData\Local\Temp\ccUeLPWl.s 			page 2


  32:Generated_Source\PSoC5/cyfitter_cfg.c ****     #define CYPACKED_ATTR __attribute__ ((packed))
  33:Generated_Source\PSoC5/cyfitter_cfg.c ****     #define CYALIGNED __attribute__ ((aligned))
  34:Generated_Source\PSoC5/cyfitter_cfg.c ****     #define CY_CFG_UNUSED __attribute__ ((unused))
  35:Generated_Source\PSoC5/cyfitter_cfg.c ****     #ifndef CY_CFG_SECTION
  36:Generated_Source\PSoC5/cyfitter_cfg.c ****         #define CY_CFG_SECTION __attribute__ ((section(".psocinit")))
  37:Generated_Source\PSoC5/cyfitter_cfg.c ****     #endif
  38:Generated_Source\PSoC5/cyfitter_cfg.c ****     
  39:Generated_Source\PSoC5/cyfitter_cfg.c ****     #if defined(__ARMCC_VERSION)
  40:Generated_Source\PSoC5/cyfitter_cfg.c ****         #define CY_CFG_MEMORY_BARRIER() __memory_changed()
  41:Generated_Source\PSoC5/cyfitter_cfg.c ****     #else
  42:Generated_Source\PSoC5/cyfitter_cfg.c ****         #define CY_CFG_MEMORY_BARRIER() __sync_synchronize()
  43:Generated_Source\PSoC5/cyfitter_cfg.c ****     #endif
  44:Generated_Source\PSoC5/cyfitter_cfg.c ****     
  45:Generated_Source\PSoC5/cyfitter_cfg.c **** #elif defined(__ICCARM__)
  46:Generated_Source\PSoC5/cyfitter_cfg.c ****     #include <intrinsics.h>
  47:Generated_Source\PSoC5/cyfitter_cfg.c **** 
  48:Generated_Source\PSoC5/cyfitter_cfg.c ****     #define CYPACKED __packed
  49:Generated_Source\PSoC5/cyfitter_cfg.c ****     #define CYPACKED_ATTR 
  50:Generated_Source\PSoC5/cyfitter_cfg.c ****     #define CYALIGNED _Pragma("data_alignment=4")
  51:Generated_Source\PSoC5/cyfitter_cfg.c ****     #define CY_CFG_UNUSED _Pragma("diag_suppress=Pe177")
  52:Generated_Source\PSoC5/cyfitter_cfg.c ****     #define CY_CFG_SECTION _Pragma("location=\".psocinit\"")
  53:Generated_Source\PSoC5/cyfitter_cfg.c ****     
  54:Generated_Source\PSoC5/cyfitter_cfg.c ****     #define CY_CFG_MEMORY_BARRIER() __DMB()
  55:Generated_Source\PSoC5/cyfitter_cfg.c ****     
  56:Generated_Source\PSoC5/cyfitter_cfg.c **** #else
  57:Generated_Source\PSoC5/cyfitter_cfg.c ****     #error Unsupported toolchain
  58:Generated_Source\PSoC5/cyfitter_cfg.c **** #endif
  59:Generated_Source\PSoC5/cyfitter_cfg.c **** 
  60:Generated_Source\PSoC5/cyfitter_cfg.c **** #ifndef CYCODE
  61:Generated_Source\PSoC5/cyfitter_cfg.c ****     #define CYCODE
  62:Generated_Source\PSoC5/cyfitter_cfg.c **** #endif
  63:Generated_Source\PSoC5/cyfitter_cfg.c **** #ifndef CYDATA
  64:Generated_Source\PSoC5/cyfitter_cfg.c ****     #define CYDATA
  65:Generated_Source\PSoC5/cyfitter_cfg.c **** #endif
  66:Generated_Source\PSoC5/cyfitter_cfg.c **** #ifndef CYFAR
  67:Generated_Source\PSoC5/cyfitter_cfg.c ****     #define CYFAR
  68:Generated_Source\PSoC5/cyfitter_cfg.c **** #endif
  69:Generated_Source\PSoC5/cyfitter_cfg.c **** #ifndef CYXDATA
  70:Generated_Source\PSoC5/cyfitter_cfg.c ****     #define CYXDATA
  71:Generated_Source\PSoC5/cyfitter_cfg.c **** #endif
  72:Generated_Source\PSoC5/cyfitter_cfg.c **** 
  73:Generated_Source\PSoC5/cyfitter_cfg.c **** 
  74:Generated_Source\PSoC5/cyfitter_cfg.c **** CY_CFG_UNUSED
  75:Generated_Source\PSoC5/cyfitter_cfg.c **** static void CYMEMZERO(void *s, size_t n);
  76:Generated_Source\PSoC5/cyfitter_cfg.c **** CY_CFG_UNUSED
  77:Generated_Source\PSoC5/cyfitter_cfg.c **** static void CYMEMZERO(void *s, size_t n)
  78:Generated_Source\PSoC5/cyfitter_cfg.c **** {
  79:Generated_Source\PSoC5/cyfitter_cfg.c **** 	(void)memset(s, 0, n);
  80:Generated_Source\PSoC5/cyfitter_cfg.c **** }
  81:Generated_Source\PSoC5/cyfitter_cfg.c **** CY_CFG_UNUSED
  82:Generated_Source\PSoC5/cyfitter_cfg.c **** static void CYCONFIGCPY(void *dest, const void *src, size_t n);
  83:Generated_Source\PSoC5/cyfitter_cfg.c **** CY_CFG_UNUSED
  84:Generated_Source\PSoC5/cyfitter_cfg.c **** static void CYCONFIGCPY(void *dest, const void *src, size_t n)
  85:Generated_Source\PSoC5/cyfitter_cfg.c **** {
  86:Generated_Source\PSoC5/cyfitter_cfg.c **** 	(void)memcpy(dest, src, n);
  87:Generated_Source\PSoC5/cyfitter_cfg.c **** }
  88:Generated_Source\PSoC5/cyfitter_cfg.c **** CY_CFG_UNUSED
ARM GAS  C:\Users\daani\AppData\Local\Temp\ccUeLPWl.s 			page 3


  89:Generated_Source\PSoC5/cyfitter_cfg.c **** static void CYCONFIGCPYCODE(void *dest, const void *src, size_t n);
  90:Generated_Source\PSoC5/cyfitter_cfg.c **** CY_CFG_UNUSED
  91:Generated_Source\PSoC5/cyfitter_cfg.c **** static void CYCONFIGCPYCODE(void *dest, const void *src, size_t n)
  92:Generated_Source\PSoC5/cyfitter_cfg.c **** {
  93:Generated_Source\PSoC5/cyfitter_cfg.c **** 	(void)memcpy(dest, src, n);
  94:Generated_Source\PSoC5/cyfitter_cfg.c **** }
  95:Generated_Source\PSoC5/cyfitter_cfg.c **** 
  96:Generated_Source\PSoC5/cyfitter_cfg.c **** 
  97:Generated_Source\PSoC5/cyfitter_cfg.c **** 
  98:Generated_Source\PSoC5/cyfitter_cfg.c **** 
  99:Generated_Source\PSoC5/cyfitter_cfg.c **** /* Clock startup error codes                                                   */
 100:Generated_Source\PSoC5/cyfitter_cfg.c **** #define CYCLOCKSTART_NO_ERROR    0u
 101:Generated_Source\PSoC5/cyfitter_cfg.c **** #define CYCLOCKSTART_XTAL_ERROR  1u
 102:Generated_Source\PSoC5/cyfitter_cfg.c **** #define CYCLOCKSTART_32KHZ_ERROR 2u
 103:Generated_Source\PSoC5/cyfitter_cfg.c **** #define CYCLOCKSTART_PLL_ERROR   3u
 104:Generated_Source\PSoC5/cyfitter_cfg.c **** #define CYCLOCKSTART_FLL_ERROR   4u
 105:Generated_Source\PSoC5/cyfitter_cfg.c **** 
 106:Generated_Source\PSoC5/cyfitter_cfg.c **** 
 107:Generated_Source\PSoC5/cyfitter_cfg.c **** #ifdef CY_NEED_CYCLOCKSTARTUPERROR
 108:Generated_Source\PSoC5/cyfitter_cfg.c **** /*******************************************************************************
 109:Generated_Source\PSoC5/cyfitter_cfg.c **** * Function Name: CyClockStartupError
 110:Generated_Source\PSoC5/cyfitter_cfg.c **** ********************************************************************************
 111:Generated_Source\PSoC5/cyfitter_cfg.c **** * Summary:
 112:Generated_Source\PSoC5/cyfitter_cfg.c **** *  If an error is encountered during clock configuration (crystal startup error,
 113:Generated_Source\PSoC5/cyfitter_cfg.c **** *  PLL lock error, etc.), the system will end up here.  Unless reimplemented by
 114:Generated_Source\PSoC5/cyfitter_cfg.c **** *  the customer, this function will stop in an infinite loop.
 115:Generated_Source\PSoC5/cyfitter_cfg.c **** *
 116:Generated_Source\PSoC5/cyfitter_cfg.c **** * Parameters:
 117:Generated_Source\PSoC5/cyfitter_cfg.c **** *   void
 118:Generated_Source\PSoC5/cyfitter_cfg.c **** *
 119:Generated_Source\PSoC5/cyfitter_cfg.c **** * Return:
 120:Generated_Source\PSoC5/cyfitter_cfg.c **** *   void
 121:Generated_Source\PSoC5/cyfitter_cfg.c **** *
 122:Generated_Source\PSoC5/cyfitter_cfg.c **** *******************************************************************************/
 123:Generated_Source\PSoC5/cyfitter_cfg.c **** CY_CFG_UNUSED
 124:Generated_Source\PSoC5/cyfitter_cfg.c **** static void CyClockStartupError(uint8 errorCode);
 125:Generated_Source\PSoC5/cyfitter_cfg.c **** CY_CFG_UNUSED
 126:Generated_Source\PSoC5/cyfitter_cfg.c **** static void CyClockStartupError(uint8 errorCode)
 127:Generated_Source\PSoC5/cyfitter_cfg.c **** {
  27              		.loc 1 127 0
  28              		.cfi_startproc
  29              		@ Volatile: function does not return.
  30              		@ args = 0, pretend = 0, frame = 0
  31              		@ frame_needed = 0, uses_anonymous_args = 0
  32              		@ link register save eliminated.
  33              	.LVL0:
  34              	.L2:
  35 0000 FEE7     		b	.L2
  36              		.cfi_endproc
  37              	.LFE3:
  38              		.size	CyClockStartupError, .-CyClockStartupError
  39 0002 00BF     		.section	.text.cfg_write_bytes32,"ax",%progbits
  40              		.align	2
  41              		.thumb
  42              		.thumb_func
  43              		.type	cfg_write_bytes32, %function
  44              	cfg_write_bytes32:
ARM GAS  C:\Users\daani\AppData\Local\Temp\ccUeLPWl.s 			page 4


  45              	.LFB4:
 128:Generated_Source\PSoC5/cyfitter_cfg.c ****     /* To remove the compiler warning if errorCode not used. */
 129:Generated_Source\PSoC5/cyfitter_cfg.c **** #if defined(CY_PSOC3) && (CY_PSOC3)
 130:Generated_Source\PSoC5/cyfitter_cfg.c ****     errorCode = errorCode;
 131:Generated_Source\PSoC5/cyfitter_cfg.c **** #else
 132:Generated_Source\PSoC5/cyfitter_cfg.c ****     (void)errorCode;
 133:Generated_Source\PSoC5/cyfitter_cfg.c **** #endif /* CY_PSOC3 */
 134:Generated_Source\PSoC5/cyfitter_cfg.c **** 
 135:Generated_Source\PSoC5/cyfitter_cfg.c ****     /* If we have a clock startup error (bad MHz crystal, PLL lock, etc.),  */
 136:Generated_Source\PSoC5/cyfitter_cfg.c ****     /* we will end up here to allow the customer to implement something to  */
 137:Generated_Source\PSoC5/cyfitter_cfg.c ****     /* deal with the clock condition.                                       */
 138:Generated_Source\PSoC5/cyfitter_cfg.c **** 
 139:Generated_Source\PSoC5/cyfitter_cfg.c **** #ifdef CY_CFG_CLOCK_STARTUP_ERROR_CALLBACK
 140:Generated_Source\PSoC5/cyfitter_cfg.c ****     CY_CFG_Clock_Startup_ErrorCallback();
 141:Generated_Source\PSoC5/cyfitter_cfg.c **** #else
 142:Generated_Source\PSoC5/cyfitter_cfg.c ****     /*  If not using CY_CFG_CLOCK_STARTUP_ERROR_CALLBACK, place your clock startup code here. */
 143:Generated_Source\PSoC5/cyfitter_cfg.c ****     /* `#START CyClockStartupError` */
 144:Generated_Source\PSoC5/cyfitter_cfg.c **** 
 145:Generated_Source\PSoC5/cyfitter_cfg.c **** 
 146:Generated_Source\PSoC5/cyfitter_cfg.c **** 
 147:Generated_Source\PSoC5/cyfitter_cfg.c ****     /* `#END` */
 148:Generated_Source\PSoC5/cyfitter_cfg.c **** 
 149:Generated_Source\PSoC5/cyfitter_cfg.c ****     while(1) {}
 150:Generated_Source\PSoC5/cyfitter_cfg.c **** #endif /* CY_CFG_CLOCK_STARTUP_ERROR_CALLBACK */
 151:Generated_Source\PSoC5/cyfitter_cfg.c **** }
 152:Generated_Source\PSoC5/cyfitter_cfg.c **** #endif
 153:Generated_Source\PSoC5/cyfitter_cfg.c **** 
 154:Generated_Source\PSoC5/cyfitter_cfg.c **** #define CY_CFG_BASE_ADDR_COUNT 41u
 155:Generated_Source\PSoC5/cyfitter_cfg.c **** CYPACKED typedef struct
 156:Generated_Source\PSoC5/cyfitter_cfg.c **** {
 157:Generated_Source\PSoC5/cyfitter_cfg.c **** 	uint8 offset;
 158:Generated_Source\PSoC5/cyfitter_cfg.c **** 	uint8 value;
 159:Generated_Source\PSoC5/cyfitter_cfg.c **** } CYPACKED_ATTR cy_cfg_addrvalue_t;
 160:Generated_Source\PSoC5/cyfitter_cfg.c **** 
 161:Generated_Source\PSoC5/cyfitter_cfg.c **** #define cy_cfg_addr_table ((const uint32 CYFAR *)0x48000000u)
 162:Generated_Source\PSoC5/cyfitter_cfg.c **** #define cy_cfg_data_table ((const cy_cfg_addrvalue_t CYFAR *)0x480000A4u)
 163:Generated_Source\PSoC5/cyfitter_cfg.c **** 
 164:Generated_Source\PSoC5/cyfitter_cfg.c **** /* IOPORT_7 Address: CYDEV_PRTDSI_PRT12_BASE Size (bytes): 6 */
 165:Generated_Source\PSoC5/cyfitter_cfg.c **** #define BS_IOPORT_7_VAL ((const uint8 CYFAR *)0x480010A4u)
 166:Generated_Source\PSoC5/cyfitter_cfg.c **** 
 167:Generated_Source\PSoC5/cyfitter_cfg.c **** /* UDB_1_1_0_CONFIG Address: CYDEV_UCFG_B1_P3_U1_BASE Size (bytes): 128 */
 168:Generated_Source\PSoC5/cyfitter_cfg.c **** #define BS_UDB_1_1_0_CONFIG_VAL ((const uint8 CYFAR *)0x480010ACu)
 169:Generated_Source\PSoC5/cyfitter_cfg.c **** 
 170:Generated_Source\PSoC5/cyfitter_cfg.c **** /* UDB_0_1_1_CONFIG Address: CYDEV_UCFG_B1_P4_U0_BASE Size (bytes): 128 */
 171:Generated_Source\PSoC5/cyfitter_cfg.c **** #define BS_UDB_0_1_1_CONFIG_VAL ((const uint8 CYFAR *)0x4800112Cu)
 172:Generated_Source\PSoC5/cyfitter_cfg.c **** 
 173:Generated_Source\PSoC5/cyfitter_cfg.c **** /* IOPINS0_0 Address: CYREG_PRT0_DR Size (bytes): 10 */
 174:Generated_Source\PSoC5/cyfitter_cfg.c **** #define BS_IOPINS0_0_VAL ((const uint8 CYFAR *)0x480011ACu)
 175:Generated_Source\PSoC5/cyfitter_cfg.c **** 
 176:Generated_Source\PSoC5/cyfitter_cfg.c **** /* IOPINS0_7 Address: CYREG_PRT12_DR Size (bytes): 10 */
 177:Generated_Source\PSoC5/cyfitter_cfg.c **** #define BS_IOPINS0_7_VAL ((const uint8 CYFAR *)0x480011B8u)
 178:Generated_Source\PSoC5/cyfitter_cfg.c **** 
 179:Generated_Source\PSoC5/cyfitter_cfg.c **** /* IOPINS0_8 Address: CYREG_PRT15_DM0 Size (bytes): 8 */
 180:Generated_Source\PSoC5/cyfitter_cfg.c **** #define BS_IOPINS0_8_VAL ((const uint8 CYFAR *)0x480011C4u)
 181:Generated_Source\PSoC5/cyfitter_cfg.c **** 
 182:Generated_Source\PSoC5/cyfitter_cfg.c **** /* IOPINS0_1 Address: CYREG_PRT1_DR Size (bytes): 10 */
 183:Generated_Source\PSoC5/cyfitter_cfg.c **** #define BS_IOPINS0_1_VAL ((const uint8 CYFAR *)0x480011CCu)
ARM GAS  C:\Users\daani\AppData\Local\Temp\ccUeLPWl.s 			page 5


 184:Generated_Source\PSoC5/cyfitter_cfg.c **** 
 185:Generated_Source\PSoC5/cyfitter_cfg.c **** /* IOPINS0_2 Address: CYREG_PRT2_DM0 Size (bytes): 8 */
 186:Generated_Source\PSoC5/cyfitter_cfg.c **** #define BS_IOPINS0_2_VAL ((const uint8 CYFAR *)0x480011D8u)
 187:Generated_Source\PSoC5/cyfitter_cfg.c **** 
 188:Generated_Source\PSoC5/cyfitter_cfg.c **** /* IOPINS0_3 Address: CYREG_PRT3_DM0 Size (bytes): 8 */
 189:Generated_Source\PSoC5/cyfitter_cfg.c **** #define BS_IOPINS0_3_VAL ((const uint8 CYFAR *)0x480011E0u)
 190:Generated_Source\PSoC5/cyfitter_cfg.c **** 
 191:Generated_Source\PSoC5/cyfitter_cfg.c **** /* CYDEV_CLKDIST_ACFG0_CFG0 Address: CYREG_CLKDIST_ACFG0_CFG0 Size (bytes): 4 */
 192:Generated_Source\PSoC5/cyfitter_cfg.c **** #define BS_CYDEV_CLKDIST_ACFG0_CFG0_VAL ((const uint8 CYFAR *)0x480011E8u)
 193:Generated_Source\PSoC5/cyfitter_cfg.c **** 
 194:Generated_Source\PSoC5/cyfitter_cfg.c **** 
 195:Generated_Source\PSoC5/cyfitter_cfg.c **** /*******************************************************************************
 196:Generated_Source\PSoC5/cyfitter_cfg.c **** * Function Name: cfg_write_bytes32
 197:Generated_Source\PSoC5/cyfitter_cfg.c **** ********************************************************************************
 198:Generated_Source\PSoC5/cyfitter_cfg.c **** * Summary:
 199:Generated_Source\PSoC5/cyfitter_cfg.c **** *  This function is used for setting up the chip configuration areas that
 200:Generated_Source\PSoC5/cyfitter_cfg.c **** *  contain relatively sparse data.
 201:Generated_Source\PSoC5/cyfitter_cfg.c **** *
 202:Generated_Source\PSoC5/cyfitter_cfg.c **** * Parameters:
 203:Generated_Source\PSoC5/cyfitter_cfg.c **** *   void
 204:Generated_Source\PSoC5/cyfitter_cfg.c **** *
 205:Generated_Source\PSoC5/cyfitter_cfg.c **** * Return:
 206:Generated_Source\PSoC5/cyfitter_cfg.c **** *   void
 207:Generated_Source\PSoC5/cyfitter_cfg.c **** *
 208:Generated_Source\PSoC5/cyfitter_cfg.c **** *******************************************************************************/
 209:Generated_Source\PSoC5/cyfitter_cfg.c **** static void cfg_write_bytes32(const uint32 addr_table[], const cy_cfg_addrvalue_t data_table[]);
 210:Generated_Source\PSoC5/cyfitter_cfg.c **** static void cfg_write_bytes32(const uint32 addr_table[], const cy_cfg_addrvalue_t data_table[])
 211:Generated_Source\PSoC5/cyfitter_cfg.c **** {
  46              		.loc 1 211 0
  47              		.cfi_startproc
  48              		@ args = 0, pretend = 0, frame = 0
  49              		@ frame_needed = 0, uses_anonymous_args = 0
  50              		@ link register save eliminated.
  51              	.LVL1:
  52              		.loc 1 211 0
  53 0000 F0B4     		push	{r4, r5, r6, r7}
  54              		.cfi_def_cfa_offset 16
  55              		.cfi_offset 4, -16
  56              		.cfi_offset 5, -12
  57              		.cfi_offset 6, -8
  58              		.cfi_offset 7, -4
  59              	.LVL2:
 212:Generated_Source\PSoC5/cyfitter_cfg.c **** 	/* For 32-bit little-endian architectures */
 213:Generated_Source\PSoC5/cyfitter_cfg.c **** 	uint32 i, j = 0u;
  60              		.loc 1 213 0
  61 0002 0022     		movs	r2, #0
 214:Generated_Source\PSoC5/cyfitter_cfg.c **** 	for (i = 0u; i < CY_CFG_BASE_ADDR_COUNT; i++)
  62              		.loc 1 214 0
  63 0004 1746     		mov	r7, r2
  64 0006 11E0     		b	.L4
  65              	.LVL3:
  66              	.L7:
  67              	.LBB2:
 215:Generated_Source\PSoC5/cyfitter_cfg.c **** 	{
 216:Generated_Source\PSoC5/cyfitter_cfg.c **** 		uint32 baseAddr = addr_table[i];
  68              		.loc 1 216 0
  69 0008 50F82760 		ldr	r6, [r0, r7, lsl #2]
ARM GAS  C:\Users\daani\AppData\Local\Temp\ccUeLPWl.s 			page 6


  70              	.LVL4:
 217:Generated_Source\PSoC5/cyfitter_cfg.c **** 		uint8 count = (uint8)baseAddr;
  71              		.loc 1 217 0
  72 000c F3B2     		uxtb	r3, r6
  73              	.LVL5:
 218:Generated_Source\PSoC5/cyfitter_cfg.c **** 		baseAddr &= 0xFFFFFF00u;
  74              		.loc 1 218 0
  75 000e 26F0FF06 		bic	r6, r6, #255
  76              	.LVL6:
 219:Generated_Source\PSoC5/cyfitter_cfg.c **** 		while (count != 0u)
  77              		.loc 1 219 0
  78 0012 08E0     		b	.L5
  79              	.L6:
 220:Generated_Source\PSoC5/cyfitter_cfg.c **** 		{
 221:Generated_Source\PSoC5/cyfitter_cfg.c **** 			CY_SET_REG8((void *)(baseAddr + data_table[j].offset), data_table[j].value);
  80              		.loc 1 221 0
  81 0014 01EB4205 		add	r5, r1, r2, lsl #1
  82 0018 11F81240 		ldrb	r4, [r1, r2, lsl #1]	@ zero_extendqisi2
  83 001c 6D78     		ldrb	r5, [r5, #1]	@ zero_extendqisi2
  84 001e A555     		strb	r5, [r4, r6]
 222:Generated_Source\PSoC5/cyfitter_cfg.c **** 			j++;
  85              		.loc 1 222 0
  86 0020 0132     		adds	r2, r2, #1
  87              	.LVL7:
 223:Generated_Source\PSoC5/cyfitter_cfg.c **** 			count--;
  88              		.loc 1 223 0
  89 0022 013B     		subs	r3, r3, #1
  90              	.LVL8:
  91 0024 DBB2     		uxtb	r3, r3
  92              	.LVL9:
  93              	.L5:
 219:Generated_Source\PSoC5/cyfitter_cfg.c **** 		{
  94              		.loc 1 219 0
  95 0026 002B     		cmp	r3, #0
  96 0028 F4D1     		bne	.L6
  97              	.LBE2:
 214:Generated_Source\PSoC5/cyfitter_cfg.c **** 	{
  98              		.loc 1 214 0 discriminator 2
  99 002a 0137     		adds	r7, r7, #1
 100              	.LVL10:
 101              	.L4:
 214:Generated_Source\PSoC5/cyfitter_cfg.c **** 	{
 102              		.loc 1 214 0 is_stmt 0 discriminator 1
 103 002c 282F     		cmp	r7, #40
 104 002e EBD9     		bls	.L7
 224:Generated_Source\PSoC5/cyfitter_cfg.c **** 		}
 225:Generated_Source\PSoC5/cyfitter_cfg.c **** 	}
 226:Generated_Source\PSoC5/cyfitter_cfg.c **** }
 105              		.loc 1 226 0 is_stmt 1
 106 0030 F0BC     		pop	{r4, r5, r6, r7}
 107              		.cfi_restore 7
 108              		.cfi_restore 6
 109              		.cfi_restore 5
 110              		.cfi_restore 4
 111              		.cfi_def_cfa_offset 0
 112              	.LVL11:
 113 0032 7047     		bx	lr
ARM GAS  C:\Users\daani\AppData\Local\Temp\ccUeLPWl.s 			page 7


 114              		.cfi_endproc
 115              	.LFE4:
 116              		.size	cfg_write_bytes32, .-cfg_write_bytes32
 117              		.section	.text.AnalogSetDefault,"ax",%progbits
 118              		.align	2
 119              		.thumb
 120              		.thumb_func
 121              		.type	AnalogSetDefault, %function
 122              	AnalogSetDefault:
 123              	.LFB6:
 227:Generated_Source\PSoC5/cyfitter_cfg.c **** 
 228:Generated_Source\PSoC5/cyfitter_cfg.c **** /*******************************************************************************
 229:Generated_Source\PSoC5/cyfitter_cfg.c **** * Function Name: ClockSetup
 230:Generated_Source\PSoC5/cyfitter_cfg.c **** ********************************************************************************
 231:Generated_Source\PSoC5/cyfitter_cfg.c **** *
 232:Generated_Source\PSoC5/cyfitter_cfg.c **** * Summary:
 233:Generated_Source\PSoC5/cyfitter_cfg.c **** *  Performs the initialization of all of the clocks in the device based on the
 234:Generated_Source\PSoC5/cyfitter_cfg.c **** *  settings in the Clock tab of the DWR.  This includes enabling the requested
 235:Generated_Source\PSoC5/cyfitter_cfg.c **** *  clocks and setting the necessary dividers to produce the desired frequency. 
 236:Generated_Source\PSoC5/cyfitter_cfg.c **** *
 237:Generated_Source\PSoC5/cyfitter_cfg.c **** * Parameters:
 238:Generated_Source\PSoC5/cyfitter_cfg.c **** *  void
 239:Generated_Source\PSoC5/cyfitter_cfg.c **** *
 240:Generated_Source\PSoC5/cyfitter_cfg.c **** * Return:
 241:Generated_Source\PSoC5/cyfitter_cfg.c **** *  void
 242:Generated_Source\PSoC5/cyfitter_cfg.c **** *
 243:Generated_Source\PSoC5/cyfitter_cfg.c **** *******************************************************************************/
 244:Generated_Source\PSoC5/cyfitter_cfg.c **** static void ClockSetup(void);
 245:Generated_Source\PSoC5/cyfitter_cfg.c **** static void ClockSetup(void)
 246:Generated_Source\PSoC5/cyfitter_cfg.c **** {
 247:Generated_Source\PSoC5/cyfitter_cfg.c **** 	uint32 timeout;
 248:Generated_Source\PSoC5/cyfitter_cfg.c **** 	uint8 pllLock;
 249:Generated_Source\PSoC5/cyfitter_cfg.c **** 
 250:Generated_Source\PSoC5/cyfitter_cfg.c **** 
 251:Generated_Source\PSoC5/cyfitter_cfg.c **** 	/* Configure Digital Clocks based on settings from Clock DWR */
 252:Generated_Source\PSoC5/cyfitter_cfg.c **** 	CY_SET_XTND_REG16((void CYFAR *)(CYREG_CLKDIST_DCFG0_CFG0), 0x0000u);
 253:Generated_Source\PSoC5/cyfitter_cfg.c **** 	CY_SET_XTND_REG8((void CYFAR *)(CYREG_CLKDIST_DCFG0_CFG0 + 0x2u), 0x50u);
 254:Generated_Source\PSoC5/cyfitter_cfg.c **** 	CY_SET_XTND_REG16((void CYFAR *)(CYREG_CLKDIST_DCFG1_CFG0), 0x0001u);
 255:Generated_Source\PSoC5/cyfitter_cfg.c **** 	CY_SET_XTND_REG8((void CYFAR *)(CYREG_CLKDIST_DCFG1_CFG0 + 0x2u), 0x18u);
 256:Generated_Source\PSoC5/cyfitter_cfg.c **** 	CY_SET_XTND_REG16((void CYFAR *)(CYREG_CLKDIST_DCFG2_CFG0), 0x0017u);
 257:Generated_Source\PSoC5/cyfitter_cfg.c **** 	CY_SET_XTND_REG8((void CYFAR *)(CYREG_CLKDIST_DCFG2_CFG0 + 0x2u), 0x18u);
 258:Generated_Source\PSoC5/cyfitter_cfg.c **** 	CY_SET_XTND_REG16((void CYFAR *)(CYREG_CLKDIST_DCFG3_CFG0), 0x0017u);
 259:Generated_Source\PSoC5/cyfitter_cfg.c **** 	CY_SET_XTND_REG8((void CYFAR *)(CYREG_CLKDIST_DCFG3_CFG0 + 0x2u), 0x18u);
 260:Generated_Source\PSoC5/cyfitter_cfg.c **** 	CY_SET_XTND_REG16((void CYFAR *)(CYREG_CLKDIST_DCFG4_CFG0), 0x0033u);
 261:Generated_Source\PSoC5/cyfitter_cfg.c **** 	CY_SET_XTND_REG8((void CYFAR *)(CYREG_CLKDIST_DCFG4_CFG0 + 0x2u), 0x18u);
 262:Generated_Source\PSoC5/cyfitter_cfg.c **** 
 263:Generated_Source\PSoC5/cyfitter_cfg.c **** 	/* Configure Analog Clocks based on settings from Clock DWR */
 264:Generated_Source\PSoC5/cyfitter_cfg.c **** 	CYCONFIGCPY((void CYFAR *)(CYREG_CLKDIST_ACFG0_CFG0), (const void CYFAR *)(BS_CYDEV_CLKDIST_ACFG0_
 265:Generated_Source\PSoC5/cyfitter_cfg.c **** 
 266:Generated_Source\PSoC5/cyfitter_cfg.c **** 	/* Configure ILO based on settings from Clock DWR */
 267:Generated_Source\PSoC5/cyfitter_cfg.c **** 	CY_SET_XTND_REG8((void CYFAR *)(CYREG_SLOWCLK_ILO_CR0), 0x02u);
 268:Generated_Source\PSoC5/cyfitter_cfg.c **** 	CY_SET_XTND_REG8((void CYFAR *)(CYREG_CLKDIST_CR), 0x08u);
 269:Generated_Source\PSoC5/cyfitter_cfg.c **** 
 270:Generated_Source\PSoC5/cyfitter_cfg.c **** 	/* Configure IMO based on settings from Clock DWR */
 271:Generated_Source\PSoC5/cyfitter_cfg.c **** 	CY_SET_XTND_REG8((void CYFAR *)(CYREG_FASTCLK_IMO_CR), 0x03u);
 272:Generated_Source\PSoC5/cyfitter_cfg.c **** 	CY_SET_XTND_REG8((void CYFAR *)(CYREG_IMO_TR1), (CY_GET_XTND_REG8((void CYFAR *)CYREG_FLSHID_CUST_
 273:Generated_Source\PSoC5/cyfitter_cfg.c **** 
ARM GAS  C:\Users\daani\AppData\Local\Temp\ccUeLPWl.s 			page 8


 274:Generated_Source\PSoC5/cyfitter_cfg.c **** 	/* Configure PLL based on settings from Clock DWR */
 275:Generated_Source\PSoC5/cyfitter_cfg.c **** 	CY_SET_XTND_REG16((void CYFAR *)(CYREG_FASTCLK_PLL_P), 0x0008u);
 276:Generated_Source\PSoC5/cyfitter_cfg.c **** 	CY_SET_XTND_REG16((void CYFAR *)(CYREG_FASTCLK_PLL_CFG0), 0x1251u);
 277:Generated_Source\PSoC5/cyfitter_cfg.c **** 	/* Wait up to 250us for the PLL to lock */
 278:Generated_Source\PSoC5/cyfitter_cfg.c **** 	pllLock = 0u;
 279:Generated_Source\PSoC5/cyfitter_cfg.c **** 	for (timeout = 250u / 10u; (timeout > 0u) && (pllLock != 0x03u); timeout--)
 280:Generated_Source\PSoC5/cyfitter_cfg.c **** 	{ 
 281:Generated_Source\PSoC5/cyfitter_cfg.c **** 		pllLock = 0x03u & ((uint8)((uint8)pllLock << 1) | ((CY_GET_XTND_REG8((void CYFAR *)CYREG_FASTCLK_
 282:Generated_Source\PSoC5/cyfitter_cfg.c **** 		CyDelayCycles(10u * 48u); /* Delay 10us based on 48MHz clock */
 283:Generated_Source\PSoC5/cyfitter_cfg.c **** 	}
 284:Generated_Source\PSoC5/cyfitter_cfg.c **** 	/* If we ran out of time the PLL didn't lock so go to the error function */
 285:Generated_Source\PSoC5/cyfitter_cfg.c **** 	if (timeout == 0u)
 286:Generated_Source\PSoC5/cyfitter_cfg.c **** 	{
 287:Generated_Source\PSoC5/cyfitter_cfg.c **** 		CyClockStartupError(CYCLOCKSTART_PLL_ERROR);
 288:Generated_Source\PSoC5/cyfitter_cfg.c **** 	}
 289:Generated_Source\PSoC5/cyfitter_cfg.c **** 
 290:Generated_Source\PSoC5/cyfitter_cfg.c **** 	/* Configure Bus/Master Clock based on settings from Clock DWR */
 291:Generated_Source\PSoC5/cyfitter_cfg.c **** 	CY_SET_XTND_REG16((void CYFAR *)(CYREG_CLKDIST_MSTR0), 0x0100u);
 292:Generated_Source\PSoC5/cyfitter_cfg.c **** 	CY_SET_XTND_REG8((void CYFAR *)(CYREG_CLKDIST_MSTR0), 0x07u);
 293:Generated_Source\PSoC5/cyfitter_cfg.c **** 	CY_SET_XTND_REG8((void CYFAR *)(CYREG_CLKDIST_BCFG0), 0x00u);
 294:Generated_Source\PSoC5/cyfitter_cfg.c **** 	CY_SET_XTND_REG8((void CYFAR *)(CYREG_CLKDIST_BCFG2), 0x48u);
 295:Generated_Source\PSoC5/cyfitter_cfg.c **** 	CY_SET_XTND_REG8((void CYFAR *)(CYREG_CLKDIST_MSTR0), 0x00u);
 296:Generated_Source\PSoC5/cyfitter_cfg.c **** 	CY_SET_XTND_REG8((void CYFAR *)(CYREG_CLKDIST_LD), 0x02u);
 297:Generated_Source\PSoC5/cyfitter_cfg.c **** 	CY_SET_XTND_REG8((void CYFAR *)(CYREG_CLKDIST_DLY1), 0x04u);
 298:Generated_Source\PSoC5/cyfitter_cfg.c **** 
 299:Generated_Source\PSoC5/cyfitter_cfg.c **** 	CY_SET_XTND_REG8((void CYFAR *)(CYREG_PM_ACT_CFG2), ((CY_GET_XTND_REG8((void CYFAR *)CYREG_PM_ACT_
 300:Generated_Source\PSoC5/cyfitter_cfg.c **** 	CY_SET_XTND_REG8((void CYFAR *)(CYREG_PM_ACT_CFG1), ((CY_GET_XTND_REG8((void CYFAR *)CYREG_PM_ACT_
 301:Generated_Source\PSoC5/cyfitter_cfg.c **** 	CY_SET_XTND_REG8((void CYFAR *)(CYREG_PM_ACT_CFG0), ((CY_GET_XTND_REG8((void CYFAR *)CYREG_PM_ACT_
 302:Generated_Source\PSoC5/cyfitter_cfg.c **** }
 303:Generated_Source\PSoC5/cyfitter_cfg.c **** 
 304:Generated_Source\PSoC5/cyfitter_cfg.c **** 
 305:Generated_Source\PSoC5/cyfitter_cfg.c **** /* Analog API Functions */
 306:Generated_Source\PSoC5/cyfitter_cfg.c **** 
 307:Generated_Source\PSoC5/cyfitter_cfg.c **** 
 308:Generated_Source\PSoC5/cyfitter_cfg.c **** /*******************************************************************************
 309:Generated_Source\PSoC5/cyfitter_cfg.c **** * Function Name: AnalogSetDefault
 310:Generated_Source\PSoC5/cyfitter_cfg.c **** ********************************************************************************
 311:Generated_Source\PSoC5/cyfitter_cfg.c **** *
 312:Generated_Source\PSoC5/cyfitter_cfg.c **** * Summary:
 313:Generated_Source\PSoC5/cyfitter_cfg.c **** *  Sets up the analog portions of the chip to default values based on chip
 314:Generated_Source\PSoC5/cyfitter_cfg.c **** *  configuration options from the project.
 315:Generated_Source\PSoC5/cyfitter_cfg.c **** *
 316:Generated_Source\PSoC5/cyfitter_cfg.c **** * Parameters:
 317:Generated_Source\PSoC5/cyfitter_cfg.c **** *  void
 318:Generated_Source\PSoC5/cyfitter_cfg.c **** *
 319:Generated_Source\PSoC5/cyfitter_cfg.c **** * Return:
 320:Generated_Source\PSoC5/cyfitter_cfg.c **** *  void
 321:Generated_Source\PSoC5/cyfitter_cfg.c **** *
 322:Generated_Source\PSoC5/cyfitter_cfg.c **** *******************************************************************************/
 323:Generated_Source\PSoC5/cyfitter_cfg.c **** static void AnalogSetDefault(void);
 324:Generated_Source\PSoC5/cyfitter_cfg.c **** static void AnalogSetDefault(void)
 325:Generated_Source\PSoC5/cyfitter_cfg.c **** {
 124              		.loc 1 325 0
 125              		.cfi_startproc
 126              		@ args = 0, pretend = 0, frame = 0
 127              		@ frame_needed = 0, uses_anonymous_args = 0
 128              		@ link register save eliminated.
ARM GAS  C:\Users\daani\AppData\Local\Temp\ccUeLPWl.s 			page 9


 326:Generated_Source\PSoC5/cyfitter_cfg.c **** 	uint8 bg_xover_inl_trim = CY_GET_XTND_REG8((void CYFAR *)(CYREG_FLSHID_MFG_CFG_BG_XOVER_INL_TRIM +
 129              		.loc 1 326 0
 130 0000 174B     		ldr	r3, .L10
 131 0002 1B78     		ldrb	r3, [r3]	@ zero_extendqisi2
 132 0004 DBB2     		uxtb	r3, r3
 133              	.LVL12:
 327:Generated_Source\PSoC5/cyfitter_cfg.c **** 	CY_SET_XTND_REG8((void CYFAR *)(CYREG_BG_DFT0), (bg_xover_inl_trim & 0x07u));
 134              		.loc 1 327 0
 135 0006 03F00701 		and	r1, r3, #7
 136 000a 164A     		ldr	r2, .L10+4
 137 000c 1170     		strb	r1, [r2]
 328:Generated_Source\PSoC5/cyfitter_cfg.c **** 	CY_SET_XTND_REG8((void CYFAR *)(CYREG_BG_DFT1), ((bg_xover_inl_trim >> 4) & 0x0Fu));
 138              		.loc 1 328 0
 139 000e 1B09     		lsrs	r3, r3, #4
 140              	.LVL13:
 141 0010 0132     		adds	r2, r2, #1
 142 0012 1370     		strb	r3, [r2]
 329:Generated_Source\PSoC5/cyfitter_cfg.c **** 	CY_SET_XTND_REG8((void CYFAR *)CYREG_CMP2_CR, 0x02u);
 143              		.loc 1 329 0
 144 0014 0222     		movs	r2, #2
 145 0016 144B     		ldr	r3, .L10+8
 146 0018 1A70     		strb	r2, [r3]
 330:Generated_Source\PSoC5/cyfitter_cfg.c **** 	CY_SET_XTND_REG8((void CYFAR *)CYREG_PM_ACT_CFG7, 0x04u);
 147              		.loc 1 330 0
 148 001a 0422     		movs	r2, #4
 149 001c A3F5A453 		sub	r3, r3, #5248
 150 0020 1B3B     		subs	r3, r3, #27
 151 0022 1A70     		strb	r2, [r3]
 331:Generated_Source\PSoC5/cyfitter_cfg.c **** 	CY_SET_XTND_REG8((void CYFAR *)CYREG_PRT2_AG, 0x40u);
 152              		.loc 1 331 0
 153 0024 4022     		movs	r2, #64
 154 0026 03F68653 		addw	r3, r3, #3462
 155 002a 1A70     		strb	r2, [r3]
 332:Generated_Source\PSoC5/cyfitter_cfg.c **** 	CY_SET_XTND_REG8((void CYFAR *)CYREG_SC2_SW0, 0x24u);
 156              		.loc 1 332 0
 157 002c 2422     		movs	r2, #36
 158 002e 03F6F303 		addw	r3, r3, #2291
 159 0032 1A70     		strb	r2, [r3]
 333:Generated_Source\PSoC5/cyfitter_cfg.c **** 	CY_SET_XTND_REG8((void CYFAR *)CYREG_SC2_SW3, 0x20u);
 160              		.loc 1 333 0
 161 0034 2023     		movs	r3, #32
 162 0036 0D4A     		ldr	r2, .L10+12
 163 0038 1370     		strb	r3, [r2]
 334:Generated_Source\PSoC5/cyfitter_cfg.c **** 	CY_SET_XTND_REG8((void CYFAR *)CYREG_SC2_SW8, 0x10u);
 164              		.loc 1 334 0
 165 003a 1022     		movs	r2, #16
 166 003c 0C49     		ldr	r1, .L10+16
 167 003e 0A70     		strb	r2, [r1]
 335:Generated_Source\PSoC5/cyfitter_cfg.c **** 	CY_SET_XTND_REG8((void CYFAR *)CYREG_DAC2_SW4, 0x20u);
 168              		.loc 1 335 0
 169 0040 6C31     		adds	r1, r1, #108
 170 0042 0B70     		strb	r3, [r1]
 336:Generated_Source\PSoC5/cyfitter_cfg.c **** 	CY_SET_XTND_REG8((void CYFAR *)CYREG_CMP2_SW3, 0x20u);
 171              		.loc 1 336 0
 172 0044 3F31     		adds	r1, r1, #63
 173 0046 0B70     		strb	r3, [r1]
 337:Generated_Source\PSoC5/cyfitter_cfg.c **** 	CY_SET_XTND_REG8((void CYFAR *)CYREG_CMP2_SW4, 0x80u);
ARM GAS  C:\Users\daani\AppData\Local\Temp\ccUeLPWl.s 			page 10


 174              		.loc 1 337 0
 175 0048 8023     		movs	r3, #128
 176 004a 0131     		adds	r1, r1, #1
 177 004c 0B70     		strb	r3, [r1]
 338:Generated_Source\PSoC5/cyfitter_cfg.c **** 	CY_SET_XTND_REG8((void CYFAR *)CYREG_DSM0_SW0, 0x10u);
 178              		.loc 1 338 0
 179 004e 2C31     		adds	r1, r1, #44
 180 0050 0A70     		strb	r2, [r1]
 339:Generated_Source\PSoC5/cyfitter_cfg.c **** 	CY_SET_XTND_REG8((void CYFAR *)CYREG_DSM0_SW4, 0x80u);
 181              		.loc 1 339 0
 182 0052 084A     		ldr	r2, .L10+20
 183 0054 1370     		strb	r3, [r2]
 340:Generated_Source\PSoC5/cyfitter_cfg.c **** 	CY_SET_XTND_REG8((void CYFAR *)CYREG_PUMP_CR0, 0x44u);
 184              		.loc 1 340 0
 185 0056 4422     		movs	r2, #68
 186 0058 074B     		ldr	r3, .L10+24
 187 005a 1A70     		strb	r2, [r3]
 188 005c 7047     		bx	lr
 189              	.L11:
 190 005e 00BF     		.align	2
 191              	.L10:
 192 0060 CF010049 		.word	1224737231
 193 0064 6E580040 		.word	1073764462
 194 0068 42580040 		.word	1073764418
 195 006c 235A0040 		.word	1073764899
 196 0070 285A0040 		.word	1073764904
 197 0074 045B0040 		.word	1073765124
 198 0078 76580040 		.word	1073764470
 199              		.cfi_endproc
 200              	.LFE6:
 201              		.size	AnalogSetDefault, .-AnalogSetDefault
 202              		.section	.text.CYMEMZERO,"ax",%progbits
 203              		.align	2
 204              		.thumb
 205              		.thumb_func
 206              		.type	CYMEMZERO, %function
 207              	CYMEMZERO:
 208              	.LFB0:
  78:Generated_Source\PSoC5/cyfitter_cfg.c **** 	(void)memset(s, 0, n);
 209              		.loc 1 78 0
 210              		.cfi_startproc
 211              		@ args = 0, pretend = 0, frame = 0
 212              		@ frame_needed = 0, uses_anonymous_args = 0
 213              	.LVL14:
 214 0000 08B5     		push	{r3, lr}
 215              		.cfi_def_cfa_offset 8
 216              		.cfi_offset 3, -8
 217              		.cfi_offset 14, -4
  79:Generated_Source\PSoC5/cyfitter_cfg.c **** }
 218              		.loc 1 79 0
 219 0002 0A46     		mov	r2, r1
 220 0004 0021     		movs	r1, #0
 221              	.LVL15:
 222 0006 FFF7FEFF 		bl	memset
 223              	.LVL16:
 224 000a 08BD     		pop	{r3, pc}
 225              		.cfi_endproc
ARM GAS  C:\Users\daani\AppData\Local\Temp\ccUeLPWl.s 			page 11


 226              	.LFE0:
 227              		.size	CYMEMZERO, .-CYMEMZERO
 228              		.section	.text.CYCONFIGCPY,"ax",%progbits
 229              		.align	2
 230              		.thumb
 231              		.thumb_func
 232              		.type	CYCONFIGCPY, %function
 233              	CYCONFIGCPY:
 234              	.LFB1:
  85:Generated_Source\PSoC5/cyfitter_cfg.c **** 	(void)memcpy(dest, src, n);
 235              		.loc 1 85 0
 236              		.cfi_startproc
 237              		@ args = 0, pretend = 0, frame = 0
 238              		@ frame_needed = 0, uses_anonymous_args = 0
 239              	.LVL17:
 240 0000 08B5     		push	{r3, lr}
 241              		.cfi_def_cfa_offset 8
 242              		.cfi_offset 3, -8
 243              		.cfi_offset 14, -4
  86:Generated_Source\PSoC5/cyfitter_cfg.c **** }
 244              		.loc 1 86 0
 245 0002 FFF7FEFF 		bl	memcpy
 246              	.LVL18:
 247 0006 08BD     		pop	{r3, pc}
 248              		.cfi_endproc
 249              	.LFE1:
 250              		.size	CYCONFIGCPY, .-CYCONFIGCPY
 251              		.section	.text.ClockSetup,"ax",%progbits
 252              		.align	2
 253              		.thumb
 254              		.thumb_func
 255              		.type	ClockSetup, %function
 256              	ClockSetup:
 257              	.LFB5:
 246:Generated_Source\PSoC5/cyfitter_cfg.c **** 	uint32 timeout;
 258              		.loc 1 246 0
 259              		.cfi_startproc
 260              		@ args = 0, pretend = 0, frame = 0
 261              		@ frame_needed = 0, uses_anonymous_args = 0
 262 0000 38B5     		push	{r3, r4, r5, lr}
 263              		.cfi_def_cfa_offset 16
 264              		.cfi_offset 3, -16
 265              		.cfi_offset 4, -12
 266              		.cfi_offset 5, -8
 267              		.cfi_offset 14, -4
 252:Generated_Source\PSoC5/cyfitter_cfg.c **** 	CY_SET_XTND_REG8((void CYFAR *)(CYREG_CLKDIST_DCFG0_CFG0 + 0x2u), 0x50u);
 268              		.loc 1 252 0
 269 0002 0024     		movs	r4, #0
 270 0004 364B     		ldr	r3, .L22
 271 0006 1C80     		strh	r4, [r3]	@ movhi
 253:Generated_Source\PSoC5/cyfitter_cfg.c **** 	CY_SET_XTND_REG16((void CYFAR *)(CYREG_CLKDIST_DCFG1_CFG0), 0x0001u);
 272              		.loc 1 253 0
 273 0008 5022     		movs	r2, #80
 274 000a 0233     		adds	r3, r3, #2
 275 000c 1A70     		strb	r2, [r3]
 254:Generated_Source\PSoC5/cyfitter_cfg.c **** 	CY_SET_XTND_REG8((void CYFAR *)(CYREG_CLKDIST_DCFG1_CFG0 + 0x2u), 0x18u);
 276              		.loc 1 254 0
ARM GAS  C:\Users\daani\AppData\Local\Temp\ccUeLPWl.s 			page 12


 277 000e 0122     		movs	r2, #1
 278 0010 0233     		adds	r3, r3, #2
 279 0012 1A80     		strh	r2, [r3]	@ movhi
 255:Generated_Source\PSoC5/cyfitter_cfg.c **** 	CY_SET_XTND_REG16((void CYFAR *)(CYREG_CLKDIST_DCFG2_CFG0), 0x0017u);
 280              		.loc 1 255 0
 281 0014 1823     		movs	r3, #24
 282 0016 334A     		ldr	r2, .L22+4
 283 0018 1370     		strb	r3, [r2]
 256:Generated_Source\PSoC5/cyfitter_cfg.c **** 	CY_SET_XTND_REG8((void CYFAR *)(CYREG_CLKDIST_DCFG2_CFG0 + 0x2u), 0x18u);
 284              		.loc 1 256 0
 285 001a 1722     		movs	r2, #23
 286 001c 3249     		ldr	r1, .L22+8
 287 001e 0A80     		strh	r2, [r1]	@ movhi
 257:Generated_Source\PSoC5/cyfitter_cfg.c **** 	CY_SET_XTND_REG16((void CYFAR *)(CYREG_CLKDIST_DCFG3_CFG0), 0x0017u);
 288              		.loc 1 257 0
 289 0020 0231     		adds	r1, r1, #2
 290 0022 0B70     		strb	r3, [r1]
 258:Generated_Source\PSoC5/cyfitter_cfg.c **** 	CY_SET_XTND_REG8((void CYFAR *)(CYREG_CLKDIST_DCFG3_CFG0 + 0x2u), 0x18u);
 291              		.loc 1 258 0
 292 0024 0231     		adds	r1, r1, #2
 293 0026 0A80     		strh	r2, [r1]	@ movhi
 259:Generated_Source\PSoC5/cyfitter_cfg.c **** 	CY_SET_XTND_REG16((void CYFAR *)(CYREG_CLKDIST_DCFG4_CFG0), 0x0033u);
 294              		.loc 1 259 0
 295 0028 304A     		ldr	r2, .L22+12
 296 002a 1370     		strb	r3, [r2]
 260:Generated_Source\PSoC5/cyfitter_cfg.c **** 	CY_SET_XTND_REG8((void CYFAR *)(CYREG_CLKDIST_DCFG4_CFG0 + 0x2u), 0x18u);
 297              		.loc 1 260 0
 298 002c 3321     		movs	r1, #51
 299 002e 0232     		adds	r2, r2, #2
 300 0030 1180     		strh	r1, [r2]	@ movhi
 261:Generated_Source\PSoC5/cyfitter_cfg.c **** 
 301              		.loc 1 261 0
 302 0032 0232     		adds	r2, r2, #2
 303 0034 1370     		strb	r3, [r2]
 264:Generated_Source\PSoC5/cyfitter_cfg.c **** 
 304              		.loc 1 264 0
 305 0036 0422     		movs	r2, #4
 306 0038 2D49     		ldr	r1, .L22+16
 307 003a 2E48     		ldr	r0, .L22+20
 308 003c FFF7FEFF 		bl	CYCONFIGCPY
 309              	.LVL19:
 267:Generated_Source\PSoC5/cyfitter_cfg.c **** 	CY_SET_XTND_REG8((void CYFAR *)(CYREG_CLKDIST_CR), 0x08u);
 310              		.loc 1 267 0
 311 0040 0222     		movs	r2, #2
 312 0042 2D4B     		ldr	r3, .L22+24
 313 0044 1A70     		strb	r2, [r3]
 268:Generated_Source\PSoC5/cyfitter_cfg.c **** 
 314              		.loc 1 268 0
 315 0046 0822     		movs	r2, #8
 316 0048 4FF04023 		mov	r3, #1073758208
 317 004c 1A70     		strb	r2, [r3]
 271:Generated_Source\PSoC5/cyfitter_cfg.c **** 	CY_SET_XTND_REG8((void CYFAR *)(CYREG_IMO_TR1), (CY_GET_XTND_REG8((void CYFAR *)CYREG_FLSHID_CUST_
 318              		.loc 1 271 0
 319 004e 0321     		movs	r1, #3
 320 0050 03F50073 		add	r3, r3, #512
 321 0054 1970     		strb	r1, [r3]
 272:Generated_Source\PSoC5/cyfitter_cfg.c **** 
ARM GAS  C:\Users\daani\AppData\Local\Temp\ccUeLPWl.s 			page 13


 322              		.loc 1 272 0
 323 0056 294B     		ldr	r3, .L22+28
 324 0058 1B78     		ldrb	r3, [r3]	@ zero_extendqisi2
 325 005a DBB2     		uxtb	r3, r3
 326 005c 2849     		ldr	r1, .L22+32
 327 005e 0B70     		strb	r3, [r1]
 275:Generated_Source\PSoC5/cyfitter_cfg.c **** 	CY_SET_XTND_REG16((void CYFAR *)(CYREG_FASTCLK_PLL_CFG0), 0x1251u);
 328              		.loc 1 275 0
 329 0060 284B     		ldr	r3, .L22+36
 330 0062 1A80     		strh	r2, [r3]	@ movhi
 276:Generated_Source\PSoC5/cyfitter_cfg.c **** 	/* Wait up to 250us for the PLL to lock */
 331              		.loc 1 276 0
 332 0064 41F25122 		movw	r2, #4689
 333 0068 023B     		subs	r3, r3, #2
 334 006a 1A80     		strh	r2, [r3]	@ movhi
 335              	.LVL20:
 279:Generated_Source\PSoC5/cyfitter_cfg.c **** 	{ 
 336              		.loc 1 279 0
 337 006c 1925     		movs	r5, #25
 338 006e 0CE0     		b	.L17
 339              	.LVL21:
 340              	.L19:
 281:Generated_Source\PSoC5/cyfitter_cfg.c **** 		CyDelayCycles(10u * 48u); /* Delay 10us based on 48MHz clock */
 341              		.loc 1 281 0 discriminator 4
 342 0070 254B     		ldr	r3, .L22+40
 343 0072 1B78     		ldrb	r3, [r3]	@ zero_extendqisi2
 344 0074 03F00103 		and	r3, r3, #1
 345 0078 43EA4404 		orr	r4, r3, r4, lsl #1
 346              	.LVL22:
 347 007c 04F00304 		and	r4, r4, #3
 348              	.LVL23:
 282:Generated_Source\PSoC5/cyfitter_cfg.c **** 	}
 349              		.loc 1 282 0 discriminator 4
 350 0080 4FF4F070 		mov	r0, #480
 351 0084 FFF7FEFF 		bl	CyDelayCycles
 352              	.LVL24:
 279:Generated_Source\PSoC5/cyfitter_cfg.c **** 	{ 
 353              		.loc 1 279 0 discriminator 4
 354 0088 013D     		subs	r5, r5, #1
 355              	.LVL25:
 356              	.L17:
 279:Generated_Source\PSoC5/cyfitter_cfg.c **** 	{ 
 357              		.loc 1 279 0 is_stmt 0 discriminator 1
 358 008a 0DB1     		cbz	r5, .L18
 279:Generated_Source\PSoC5/cyfitter_cfg.c **** 	{ 
 359              		.loc 1 279 0 discriminator 3
 360 008c 032C     		cmp	r4, #3
 361 008e EFD1     		bne	.L19
 362              	.L18:
 285:Generated_Source\PSoC5/cyfitter_cfg.c **** 	{
 363              		.loc 1 285 0 is_stmt 1
 364 0090 15B9     		cbnz	r5, .L20
 287:Generated_Source\PSoC5/cyfitter_cfg.c **** 	}
 365              		.loc 1 287 0
 366 0092 0320     		movs	r0, #3
 367 0094 FFF7FEFF 		bl	CyClockStartupError
 368              	.LVL26:
ARM GAS  C:\Users\daani\AppData\Local\Temp\ccUeLPWl.s 			page 14


 369              	.L20:
 291:Generated_Source\PSoC5/cyfitter_cfg.c **** 	CY_SET_XTND_REG8((void CYFAR *)(CYREG_CLKDIST_MSTR0), 0x07u);
 370              		.loc 1 291 0
 371 0098 1C4B     		ldr	r3, .L22+44
 372 009a 4FF48072 		mov	r2, #256
 373 009e 1A80     		strh	r2, [r3]	@ movhi
 292:Generated_Source\PSoC5/cyfitter_cfg.c **** 	CY_SET_XTND_REG8((void CYFAR *)(CYREG_CLKDIST_BCFG0), 0x00u);
 374              		.loc 1 292 0
 375 00a0 0722     		movs	r2, #7
 376 00a2 1A70     		strb	r2, [r3]
 293:Generated_Source\PSoC5/cyfitter_cfg.c **** 	CY_SET_XTND_REG8((void CYFAR *)(CYREG_CLKDIST_BCFG2), 0x48u);
 377              		.loc 1 293 0
 378 00a4 0022     		movs	r2, #0
 379 00a6 1A49     		ldr	r1, .L22+48
 380 00a8 0A70     		strb	r2, [r1]
 294:Generated_Source\PSoC5/cyfitter_cfg.c **** 	CY_SET_XTND_REG8((void CYFAR *)(CYREG_CLKDIST_MSTR0), 0x00u);
 381              		.loc 1 294 0
 382 00aa 4820     		movs	r0, #72
 383 00ac 0231     		adds	r1, r1, #2
 384 00ae 0870     		strb	r0, [r1]
 295:Generated_Source\PSoC5/cyfitter_cfg.c **** 	CY_SET_XTND_REG8((void CYFAR *)(CYREG_CLKDIST_LD), 0x02u);
 385              		.loc 1 295 0
 386 00b0 1A70     		strb	r2, [r3]
 296:Generated_Source\PSoC5/cyfitter_cfg.c **** 	CY_SET_XTND_REG8((void CYFAR *)(CYREG_CLKDIST_DLY1), 0x04u);
 387              		.loc 1 296 0
 388 00b2 0222     		movs	r2, #2
 389 00b4 033B     		subs	r3, r3, #3
 390 00b6 1A70     		strb	r2, [r3]
 297:Generated_Source\PSoC5/cyfitter_cfg.c **** 
 391              		.loc 1 297 0
 392 00b8 0422     		movs	r2, #4
 393 00ba 0A33     		adds	r3, r3, #10
 394 00bc 1A70     		strb	r2, [r3]
 299:Generated_Source\PSoC5/cyfitter_cfg.c **** 	CY_SET_XTND_REG8((void CYFAR *)(CYREG_PM_ACT_CFG1), ((CY_GET_XTND_REG8((void CYFAR *)CYREG_PM_ACT_
 395              		.loc 1 299 0
 396 00be 154A     		ldr	r2, .L22+52
 397 00c0 1378     		ldrb	r3, [r2]	@ zero_extendqisi2
 398 00c2 43F01F03 		orr	r3, r3, #31
 399 00c6 1370     		strb	r3, [r2]
 300:Generated_Source\PSoC5/cyfitter_cfg.c **** 	CY_SET_XTND_REG8((void CYFAR *)(CYREG_PM_ACT_CFG0), ((CY_GET_XTND_REG8((void CYFAR *)CYREG_PM_ACT_
 400              		.loc 1 300 0
 401 00c8 013A     		subs	r2, r2, #1
 402 00ca 1378     		ldrb	r3, [r2]	@ zero_extendqisi2
 403 00cc 43F00103 		orr	r3, r3, #1
 404 00d0 1370     		strb	r3, [r2]
 301:Generated_Source\PSoC5/cyfitter_cfg.c **** }
 405              		.loc 1 301 0
 406 00d2 013A     		subs	r2, r2, #1
 407 00d4 1378     		ldrb	r3, [r2]	@ zero_extendqisi2
 408 00d6 43F08003 		orr	r3, r3, #128
 409 00da 1370     		strb	r3, [r2]
 410 00dc 38BD     		pop	{r3, r4, r5, pc}
 411              	.LVL27:
 412              	.L23:
 413 00de 00BF     		.align	2
 414              	.L22:
 415 00e0 80400040 		.word	1073758336
ARM GAS  C:\Users\daani\AppData\Local\Temp\ccUeLPWl.s 			page 15


 416 00e4 86400040 		.word	1073758342
 417 00e8 88400040 		.word	1073758344
 418 00ec 8E400040 		.word	1073758350
 419 00f0 E8110048 		.word	1207964136
 420 00f4 00410040 		.word	1073758464
 421 00f8 00430040 		.word	1073758976
 422 00fc 08010049 		.word	1224737032
 423 0100 A1460040 		.word	1073759905
 424 0104 22420040 		.word	1073758754
 425 0108 25420040 		.word	1073758757
 426 010c 04400040 		.word	1073758212
 427 0110 06400040 		.word	1073758214
 428 0114 A2430040 		.word	1073759138
 429              		.cfi_endproc
 430              	.LFE5:
 431              		.size	ClockSetup, .-ClockSetup
 432              		.section	.text.SetAnalogRoutingPumps,"ax",%progbits
 433              		.align	2
 434              		.global	SetAnalogRoutingPumps
 435              		.thumb
 436              		.thumb_func
 437              		.type	SetAnalogRoutingPumps, %function
 438              	SetAnalogRoutingPumps:
 439              	.LFB7:
 341:Generated_Source\PSoC5/cyfitter_cfg.c **** }
 342:Generated_Source\PSoC5/cyfitter_cfg.c **** 
 343:Generated_Source\PSoC5/cyfitter_cfg.c **** 
 344:Generated_Source\PSoC5/cyfitter_cfg.c **** /*******************************************************************************
 345:Generated_Source\PSoC5/cyfitter_cfg.c **** * Function Name: SetAnalogRoutingPumps
 346:Generated_Source\PSoC5/cyfitter_cfg.c **** ********************************************************************************
 347:Generated_Source\PSoC5/cyfitter_cfg.c **** *
 348:Generated_Source\PSoC5/cyfitter_cfg.c **** * Summary:
 349:Generated_Source\PSoC5/cyfitter_cfg.c **** * Enables or disables the analog pumps feeding analog routing switches.
 350:Generated_Source\PSoC5/cyfitter_cfg.c **** * Intended to be called at startup, based on the Vdda system configuration;
 351:Generated_Source\PSoC5/cyfitter_cfg.c **** * may be called during operation when the user informs us that the Vdda voltage
 352:Generated_Source\PSoC5/cyfitter_cfg.c **** * crossed the pump threshold.
 353:Generated_Source\PSoC5/cyfitter_cfg.c **** *
 354:Generated_Source\PSoC5/cyfitter_cfg.c **** * Parameters:
 355:Generated_Source\PSoC5/cyfitter_cfg.c **** *  enabled - 1 to enable the pumps, 0 to disable the pumps
 356:Generated_Source\PSoC5/cyfitter_cfg.c **** *
 357:Generated_Source\PSoC5/cyfitter_cfg.c **** * Return:
 358:Generated_Source\PSoC5/cyfitter_cfg.c **** *  void
 359:Generated_Source\PSoC5/cyfitter_cfg.c **** *
 360:Generated_Source\PSoC5/cyfitter_cfg.c **** *******************************************************************************/
 361:Generated_Source\PSoC5/cyfitter_cfg.c **** void SetAnalogRoutingPumps(uint8 enabled)
 362:Generated_Source\PSoC5/cyfitter_cfg.c **** {
 440              		.loc 1 362 0
 441              		.cfi_startproc
 442              		@ args = 0, pretend = 0, frame = 0
 443              		@ frame_needed = 0, uses_anonymous_args = 0
 444              		@ link register save eliminated.
 445              	.LVL28:
 363:Generated_Source\PSoC5/cyfitter_cfg.c **** 	uint8 regValue = CY_GET_XTND_REG8((void CYFAR *)CYREG_PUMP_CR0);
 446              		.loc 1 363 0
 447 0000 054B     		ldr	r3, .L27
 448 0002 1B78     		ldrb	r3, [r3]	@ zero_extendqisi2
 449 0004 DBB2     		uxtb	r3, r3
ARM GAS  C:\Users\daani\AppData\Local\Temp\ccUeLPWl.s 			page 16


 450              	.LVL29:
 364:Generated_Source\PSoC5/cyfitter_cfg.c **** 	if (enabled != 0u)
 451              		.loc 1 364 0
 452 0006 10B1     		cbz	r0, .L25
 365:Generated_Source\PSoC5/cyfitter_cfg.c **** 	{
 366:Generated_Source\PSoC5/cyfitter_cfg.c **** 		regValue |= 0x22u;
 453              		.loc 1 366 0
 454 0008 43F02203 		orr	r3, r3, #34
 455              	.LVL30:
 456 000c 01E0     		b	.L26
 457              	.L25:
 367:Generated_Source\PSoC5/cyfitter_cfg.c **** 	}
 368:Generated_Source\PSoC5/cyfitter_cfg.c **** 	else
 369:Generated_Source\PSoC5/cyfitter_cfg.c **** 	{
 370:Generated_Source\PSoC5/cyfitter_cfg.c **** 		regValue &= (uint8)~0x22u;
 458              		.loc 1 370 0
 459 000e 03F0DD03 		and	r3, r3, #221
 460              	.LVL31:
 461              	.L26:
 371:Generated_Source\PSoC5/cyfitter_cfg.c **** 	}
 372:Generated_Source\PSoC5/cyfitter_cfg.c **** 	CY_SET_XTND_REG8((void CYFAR *)CYREG_PUMP_CR0, regValue);
 462              		.loc 1 372 0
 463 0012 014A     		ldr	r2, .L27
 464 0014 1370     		strb	r3, [r2]
 465 0016 7047     		bx	lr
 466              	.L28:
 467              		.align	2
 468              	.L27:
 469 0018 76580040 		.word	1073764470
 470              		.cfi_endproc
 471              	.LFE7:
 472              		.size	SetAnalogRoutingPumps, .-SetAnalogRoutingPumps
 473              		.section	.text.cyfitter_cfg,"ax",%progbits
 474              		.align	2
 475              		.global	cyfitter_cfg
 476              		.thumb
 477              		.thumb_func
 478              		.type	cyfitter_cfg, %function
 479              	cyfitter_cfg:
 480              	.LFB8:
 373:Generated_Source\PSoC5/cyfitter_cfg.c **** }
 374:Generated_Source\PSoC5/cyfitter_cfg.c **** 
 375:Generated_Source\PSoC5/cyfitter_cfg.c **** 
 376:Generated_Source\PSoC5/cyfitter_cfg.c **** 
 377:Generated_Source\PSoC5/cyfitter_cfg.c **** 
 378:Generated_Source\PSoC5/cyfitter_cfg.c **** /*******************************************************************************
 379:Generated_Source\PSoC5/cyfitter_cfg.c **** * Function Name: cyfitter_cfg
 380:Generated_Source\PSoC5/cyfitter_cfg.c **** ********************************************************************************
 381:Generated_Source\PSoC5/cyfitter_cfg.c **** * Summary:
 382:Generated_Source\PSoC5/cyfitter_cfg.c **** *  This function is called by the start-up code for the selected device. It
 383:Generated_Source\PSoC5/cyfitter_cfg.c **** *  performs all of the necessary device configuration based on the design
 384:Generated_Source\PSoC5/cyfitter_cfg.c **** *  settings.  This includes settings from the Design Wide Resources (DWR) such
 385:Generated_Source\PSoC5/cyfitter_cfg.c **** *  as Clocks and Pins as well as any component configuration that is necessary.
 386:Generated_Source\PSoC5/cyfitter_cfg.c **** *
 387:Generated_Source\PSoC5/cyfitter_cfg.c **** * Parameters:
 388:Generated_Source\PSoC5/cyfitter_cfg.c **** *   void
 389:Generated_Source\PSoC5/cyfitter_cfg.c **** *
ARM GAS  C:\Users\daani\AppData\Local\Temp\ccUeLPWl.s 			page 17


 390:Generated_Source\PSoC5/cyfitter_cfg.c **** * Return:
 391:Generated_Source\PSoC5/cyfitter_cfg.c **** *   void
 392:Generated_Source\PSoC5/cyfitter_cfg.c **** *
 393:Generated_Source\PSoC5/cyfitter_cfg.c **** *******************************************************************************/
 394:Generated_Source\PSoC5/cyfitter_cfg.c **** 
 395:Generated_Source\PSoC5/cyfitter_cfg.c **** void cyfitter_cfg(void)
 396:Generated_Source\PSoC5/cyfitter_cfg.c **** {
 481              		.loc 1 396 0
 482              		.cfi_startproc
 483              		@ args = 0, pretend = 0, frame = 0
 484              		@ frame_needed = 0, uses_anonymous_args = 0
 485 0000 38B5     		push	{r3, r4, r5, lr}
 486              		.cfi_def_cfa_offset 16
 487              		.cfi_offset 3, -16
 488              		.cfi_offset 4, -12
 489              		.cfi_offset 5, -8
 490              		.cfi_offset 14, -4
 397:Generated_Source\PSoC5/cyfitter_cfg.c **** #ifdef CYGlobalIntDisable
 398:Generated_Source\PSoC5/cyfitter_cfg.c **** 	/* Disable interrupts by default. Let user enable if/when they want. */
 399:Generated_Source\PSoC5/cyfitter_cfg.c **** 	CYGlobalIntDisable
 491              		.loc 1 399 0
 492              		.syntax unified
 493              	@ 399 "Generated_Source\PSoC5\cyfitter_cfg.c" 1
 494 0002 72B6     		CPSID   i
 495              	@ 0 "" 2
 400:Generated_Source\PSoC5/cyfitter_cfg.c **** #endif
 401:Generated_Source\PSoC5/cyfitter_cfg.c **** 
 402:Generated_Source\PSoC5/cyfitter_cfg.c **** 	/* Enable/Disable Debug functionality based on settings from System DWR */
 403:Generated_Source\PSoC5/cyfitter_cfg.c **** 	CY_SET_XTND_REG8((void CYFAR *)CYREG_MLOGIC_DEBUG, (CY_GET_XTND_REG8((void CYFAR *)CYREG_MLOGIC_DE
 496              		.loc 1 403 0
 497              		.thumb
 498              		.syntax unified
 499 0004 4A4A     		ldr	r2, .L35
 500 0006 1378     		ldrb	r3, [r2]	@ zero_extendqisi2
 501 0008 43F00403 		orr	r3, r3, #4
 502 000c 1370     		strb	r3, [r2]
 503              	.LVL32:
 504              	.LBB3:
 404:Generated_Source\PSoC5/cyfitter_cfg.c **** 
 405:Generated_Source\PSoC5/cyfitter_cfg.c **** 	{
 406:Generated_Source\PSoC5/cyfitter_cfg.c **** 
 407:Generated_Source\PSoC5/cyfitter_cfg.c **** 		CYPACKED typedef struct {
 408:Generated_Source\PSoC5/cyfitter_cfg.c **** 			void CYFAR *address;
 409:Generated_Source\PSoC5/cyfitter_cfg.c **** 			uint16 size;
 410:Generated_Source\PSoC5/cyfitter_cfg.c **** 		} CYPACKED_ATTR cfg_memset_t;
 411:Generated_Source\PSoC5/cyfitter_cfg.c **** 
 412:Generated_Source\PSoC5/cyfitter_cfg.c **** 
 413:Generated_Source\PSoC5/cyfitter_cfg.c **** 		CYPACKED typedef struct {
 414:Generated_Source\PSoC5/cyfitter_cfg.c **** 			void CYFAR *dest;
 415:Generated_Source\PSoC5/cyfitter_cfg.c **** 			const void CYFAR *src;
 416:Generated_Source\PSoC5/cyfitter_cfg.c **** 			uint16 size;
 417:Generated_Source\PSoC5/cyfitter_cfg.c **** 		} CYPACKED_ATTR cfg_memcpy_t;
 418:Generated_Source\PSoC5/cyfitter_cfg.c **** 
 419:Generated_Source\PSoC5/cyfitter_cfg.c **** 		static const cfg_memset_t CYCODE cfg_memset_list[] = {
 420:Generated_Source\PSoC5/cyfitter_cfg.c **** 			/* address, size */
 421:Generated_Source\PSoC5/cyfitter_cfg.c **** 			{(void CYFAR *)(CYREG_PRT4_DR), 48u},
 422:Generated_Source\PSoC5/cyfitter_cfg.c **** 			{(void CYFAR *)(CYDEV_UCFG_B0_P0_U0_BASE), 4096u},
ARM GAS  C:\Users\daani\AppData\Local\Temp\ccUeLPWl.s 			page 18


 423:Generated_Source\PSoC5/cyfitter_cfg.c **** 			{(void CYFAR *)(CYDEV_UCFG_B1_P2_U0_BASE), 640u},
 424:Generated_Source\PSoC5/cyfitter_cfg.c **** 			{(void CYFAR *)(CYDEV_UCFG_B1_P3_ROUTE_BASE), 256u},
 425:Generated_Source\PSoC5/cyfitter_cfg.c **** 			{(void CYFAR *)(CYDEV_UCFG_B1_P4_U1_BASE), 896u},
 426:Generated_Source\PSoC5/cyfitter_cfg.c **** 			{(void CYFAR *)(CYDEV_UCFG_DSI0_BASE), 2560u},
 427:Generated_Source\PSoC5/cyfitter_cfg.c **** 			{(void CYFAR *)(CYDEV_UCFG_DSI12_BASE), 512u},
 428:Generated_Source\PSoC5/cyfitter_cfg.c **** 			{(void CYFAR *)(CYREG_BCTL0_MDCLK_EN), 32u},
 429:Generated_Source\PSoC5/cyfitter_cfg.c **** 		};
 430:Generated_Source\PSoC5/cyfitter_cfg.c **** 
 431:Generated_Source\PSoC5/cyfitter_cfg.c **** 		static const cfg_memcpy_t CYCODE cfg_memcpy_list [] = {
 432:Generated_Source\PSoC5/cyfitter_cfg.c **** 			/* dest, src, size */
 433:Generated_Source\PSoC5/cyfitter_cfg.c **** 			{(void CYFAR *)(CYDEV_PRTDSI_PRT12_BASE), BS_IOPORT_7_VAL, 6u},
 434:Generated_Source\PSoC5/cyfitter_cfg.c **** 			{(void CYFAR *)(CYDEV_UCFG_B1_P3_U1_BASE), BS_UDB_1_1_0_CONFIG_VAL, 128u},
 435:Generated_Source\PSoC5/cyfitter_cfg.c **** 			{(void CYFAR *)(CYDEV_UCFG_B1_P4_U0_BASE), BS_UDB_0_1_1_CONFIG_VAL, 128u},
 436:Generated_Source\PSoC5/cyfitter_cfg.c **** 		};
 437:Generated_Source\PSoC5/cyfitter_cfg.c **** 
 438:Generated_Source\PSoC5/cyfitter_cfg.c **** 		uint8 CYDATA i;
 439:Generated_Source\PSoC5/cyfitter_cfg.c **** 
 440:Generated_Source\PSoC5/cyfitter_cfg.c **** 		/* Zero out critical memory blocks before beginning configuration */
 441:Generated_Source\PSoC5/cyfitter_cfg.c **** 		for (i = 0u; i < (sizeof(cfg_memset_list)/sizeof(cfg_memset_list[0])); i++)
 505              		.loc 1 441 0
 506 000e 0024     		movs	r4, #0
 507 0010 0CE0     		b	.L30
 508              	.LVL33:
 509              	.L31:
 510              	.LBB4:
 442:Generated_Source\PSoC5/cyfitter_cfg.c **** 		{
 443:Generated_Source\PSoC5/cyfitter_cfg.c **** 			const cfg_memset_t CYCODE * CYDATA ms = &cfg_memset_list[i];
 444:Generated_Source\PSoC5/cyfitter_cfg.c **** 			CYMEMZERO(ms->address, (size_t)(uint32)(ms->size));
 511              		.loc 1 444 0 discriminator 3
 512 0012 484D     		ldr	r5, .L35+4
 513 0014 6300     		lsls	r3, r4, #1
 514 0016 1919     		adds	r1, r3, r4
 515 0018 4A00     		lsls	r2, r1, #1
 516 001a 1146     		mov	r1, r2
 517 001c 2A44     		add	r2, r2, r5
 518 001e 0846     		mov	r0, r1
 519 0020 9188     		ldrh	r1, [r2, #4]
 520 0022 2858     		ldr	r0, [r5, r0]	@ unaligned
 521 0024 FFF7FEFF 		bl	CYMEMZERO
 522              	.LVL34:
 523              	.LBE4:
 441:Generated_Source\PSoC5/cyfitter_cfg.c **** 		{
 524              		.loc 1 441 0 discriminator 3
 525 0028 0134     		adds	r4, r4, #1
 526              	.LVL35:
 527 002a E4B2     		uxtb	r4, r4
 528              	.LVL36:
 529              	.L30:
 441:Generated_Source\PSoC5/cyfitter_cfg.c **** 		{
 530              		.loc 1 441 0 is_stmt 0 discriminator 1
 531 002c 072C     		cmp	r4, #7
 532 002e F0D9     		bls	.L31
 533 0030 0024     		movs	r4, #0
 534              	.LVL37:
 535 0032 0BE0     		b	.L32
 536              	.LVL38:
 537              	.L33:
ARM GAS  C:\Users\daani\AppData\Local\Temp\ccUeLPWl.s 			page 19


 538              	.LBB5:
 445:Generated_Source\PSoC5/cyfitter_cfg.c **** 		}
 446:Generated_Source\PSoC5/cyfitter_cfg.c **** 
 447:Generated_Source\PSoC5/cyfitter_cfg.c **** 		/* Copy device configuration data into registers */
 448:Generated_Source\PSoC5/cyfitter_cfg.c **** 		for (i = 0u; i < (sizeof(cfg_memcpy_list)/sizeof(cfg_memcpy_list[0])); i++)
 449:Generated_Source\PSoC5/cyfitter_cfg.c **** 		{
 450:Generated_Source\PSoC5/cyfitter_cfg.c **** 			const cfg_memcpy_t CYCODE * CYDATA mc = &cfg_memcpy_list[i];
 451:Generated_Source\PSoC5/cyfitter_cfg.c **** 			void * CYDATA destPtr = mc->dest;
 539              		.loc 1 451 0 is_stmt 1 discriminator 3
 540 0034 3F48     		ldr	r0, .L35+4
 541 0036 A200     		lsls	r2, r4, #2
 542 0038 1119     		adds	r1, r2, r4
 543 003a 4B00     		lsls	r3, r1, #1
 544 003c 0344     		add	r3, r3, r0
 545              	.LVL39:
 452:Generated_Source\PSoC5/cyfitter_cfg.c **** 			const void * CYDATA srcPtr = mc->src;
 453:Generated_Source\PSoC5/cyfitter_cfg.c **** 			uint16 CYDATA numBytes = mc->size;
 454:Generated_Source\PSoC5/cyfitter_cfg.c **** 			CYCONFIGCPY(destPtr, srcPtr, numBytes);
 546              		.loc 1 454 0 discriminator 3
 547 003e 1A8F     		ldrh	r2, [r3, #56]
 548 0040 596B     		ldr	r1, [r3, #52]	@ unaligned
 549              	.LVL40:
 550 0042 186B     		ldr	r0, [r3, #48]	@ unaligned
 551              	.LVL41:
 552 0044 FFF7FEFF 		bl	CYCONFIGCPY
 553              	.LVL42:
 554              	.LBE5:
 448:Generated_Source\PSoC5/cyfitter_cfg.c **** 		{
 555              		.loc 1 448 0 discriminator 3
 556 0048 0134     		adds	r4, r4, #1
 557              	.LVL43:
 558 004a E4B2     		uxtb	r4, r4
 559              	.LVL44:
 560              	.L32:
 448:Generated_Source\PSoC5/cyfitter_cfg.c **** 		{
 561              		.loc 1 448 0 is_stmt 0 discriminator 1
 562 004c 022C     		cmp	r4, #2
 563 004e F1D9     		bls	.L33
 455:Generated_Source\PSoC5/cyfitter_cfg.c **** 		}
 456:Generated_Source\PSoC5/cyfitter_cfg.c **** 
 457:Generated_Source\PSoC5/cyfitter_cfg.c **** 		cfg_write_bytes32(cy_cfg_addr_table, cy_cfg_data_table);
 564              		.loc 1 457 0 is_stmt 1
 565 0050 3949     		ldr	r1, .L35+8
 566 0052 4FF09040 		mov	r0, #1207959552
 567 0056 FFF7FEFF 		bl	cfg_write_bytes32
 568              	.LVL45:
 458:Generated_Source\PSoC5/cyfitter_cfg.c **** 
 459:Generated_Source\PSoC5/cyfitter_cfg.c **** 		/* Perform normal device configuration. Order is not critical for these items. */
 460:Generated_Source\PSoC5/cyfitter_cfg.c **** 		CY_SET_XTND_REG8((void CYFAR *)(CYREG_DSM0_CR3), 0x0Au);
 569              		.loc 1 460 0
 570 005a 0A24     		movs	r4, #10
 571              	.LVL46:
 572 005c 374B     		ldr	r3, .L35+12
 573 005e 1C70     		strb	r4, [r3]
 461:Generated_Source\PSoC5/cyfitter_cfg.c **** 		CY_SET_XTND_REG16((void CYFAR *)(CYREG_LUT2_CR), 0x0203u);
 574              		.loc 1 461 0
 575 0060 40F20322 		movw	r2, #515
ARM GAS  C:\Users\daani\AppData\Local\Temp\ccUeLPWl.s 			page 20


 576 0064 373B     		subs	r3, r3, #55
 577 0066 1A80     		strh	r2, [r3]	@ movhi
 462:Generated_Source\PSoC5/cyfitter_cfg.c **** 
 463:Generated_Source\PSoC5/cyfitter_cfg.c **** 		/* B0_P1_U0_CFG24 Starting address: CYDEV_UCFG_B0_P1_U0_CFG24 */
 464:Generated_Source\PSoC5/cyfitter_cfg.c **** 		CY_SET_XTND_REG32((void CYFAR *)(CYREG_B0_P1_U0_CFG24), 0x44000404u);
 578              		.loc 1 464 0
 579 0068 354A     		ldr	r2, .L35+16
 580 006a 03F52A43 		add	r3, r3, #43520
 581 006e 0C33     		adds	r3, r3, #12
 582 0070 1A60     		str	r2, [r3]
 465:Generated_Source\PSoC5/cyfitter_cfg.c **** 
 466:Generated_Source\PSoC5/cyfitter_cfg.c **** 		/* B0_P1_U1_CFG24 Starting address: CYDEV_UCFG_B0_P1_U1_CFG24 */
 467:Generated_Source\PSoC5/cyfitter_cfg.c **** 		CY_SET_XTND_REG32((void CYFAR *)(CYREG_B0_P1_U1_CFG24), 0xC4000404u);
 583              		.loc 1 467 0
 584 0072 02F10042 		add	r2, r2, #-2147483648
 585 0076 8033     		adds	r3, r3, #128
 586 0078 1A60     		str	r2, [r3]
 468:Generated_Source\PSoC5/cyfitter_cfg.c **** 
 469:Generated_Source\PSoC5/cyfitter_cfg.c **** 		/* B0_P3_U1_CFG24 Starting address: CYDEV_UCFG_B0_P3_U1_CFG24 */
 470:Generated_Source\PSoC5/cyfitter_cfg.c **** 		CY_SET_XTND_REG32((void CYFAR *)(CYREG_B0_P3_U1_CFG24), 0xC4040404u);
 587              		.loc 1 470 0
 588 007a 324B     		ldr	r3, .L35+20
 589 007c 324A     		ldr	r2, .L35+24
 590 007e 1360     		str	r3, [r2]
 471:Generated_Source\PSoC5/cyfitter_cfg.c **** 
 472:Generated_Source\PSoC5/cyfitter_cfg.c **** 		/* B0_P4_U1_CFG24 Starting address: CYDEV_UCFG_B0_P4_U1_CFG24 */
 473:Generated_Source\PSoC5/cyfitter_cfg.c **** 		CY_SET_XTND_REG32((void CYFAR *)(CYREG_B0_P4_U1_CFG24), 0x44040404u);
 591              		.loc 1 473 0
 592 0080 3249     		ldr	r1, .L35+28
 593 0082 02F50072 		add	r2, r2, #512
 594 0086 1160     		str	r1, [r2]
 474:Generated_Source\PSoC5/cyfitter_cfg.c **** 
 475:Generated_Source\PSoC5/cyfitter_cfg.c **** 		/* B0_P6_U1_CFG24 Starting address: CYDEV_UCFG_B0_P6_U1_CFG24 */
 476:Generated_Source\PSoC5/cyfitter_cfg.c **** 		CY_SET_XTND_REG32((void CYFAR *)(CYREG_B0_P6_U1_CFG24), 0xC4040404u);
 595              		.loc 1 476 0
 596 0088 02F58062 		add	r2, r2, #1024
 597 008c 1360     		str	r3, [r2]
 477:Generated_Source\PSoC5/cyfitter_cfg.c **** 
 478:Generated_Source\PSoC5/cyfitter_cfg.c **** 		/* Enable digital routing */
 479:Generated_Source\PSoC5/cyfitter_cfg.c **** 		CY_SET_XTND_REG8((void CYFAR *)CYREG_BCTL0_BANK_CTL, CY_GET_XTND_REG8((void CYFAR *)CYREG_BCTL0_B
 598              		.loc 1 479 0
 599 008e 02F58642 		add	r2, r2, #17152
 600 0092 2B32     		adds	r2, r2, #43
 601 0094 1378     		ldrb	r3, [r2]	@ zero_extendqisi2
 602 0096 43F00203 		orr	r3, r3, #2
 603 009a 1370     		strb	r3, [r2]
 480:Generated_Source\PSoC5/cyfitter_cfg.c **** 		CY_SET_XTND_REG8((void CYFAR *)CYREG_BCTL1_BANK_CTL, CY_GET_XTND_REG8((void CYFAR *)CYREG_BCTL1_B
 604              		.loc 1 480 0
 605 009c 1032     		adds	r2, r2, #16
 606 009e 1378     		ldrb	r3, [r2]	@ zero_extendqisi2
 607 00a0 43F00203 		orr	r3, r3, #2
 608 00a4 1370     		strb	r3, [r2]
 481:Generated_Source\PSoC5/cyfitter_cfg.c **** 
 482:Generated_Source\PSoC5/cyfitter_cfg.c **** 		/* Enable UDB array */
 483:Generated_Source\PSoC5/cyfitter_cfg.c **** 		CY_SET_XTND_REG8((void CYFAR *)CYREG_PM_ACT_CFG0, CY_GET_XTND_REG8((void CYFAR *)CYREG_PM_ACT_CFG
 609              		.loc 1 483 0
 610 00a6 2A4D     		ldr	r5, .L35+32
ARM GAS  C:\Users\daani\AppData\Local\Temp\ccUeLPWl.s 			page 21


 611 00a8 2B78     		ldrb	r3, [r5]	@ zero_extendqisi2
 612 00aa 43F04003 		orr	r3, r3, #64
 613 00ae 2B70     		strb	r3, [r5]
 484:Generated_Source\PSoC5/cyfitter_cfg.c **** 		CY_SET_XTND_REG8((void CYFAR *)CYREG_PM_AVAIL_CR2, CY_GET_XTND_REG8((void CYFAR *)CYREG_PM_AVAIL_
 614              		.loc 1 484 0
 615 00b0 A2F58632 		sub	r2, r2, #68608
 616 00b4 513A     		subs	r2, r2, #81
 617 00b6 1378     		ldrb	r3, [r2]	@ zero_extendqisi2
 618 00b8 43F01003 		orr	r3, r3, #16
 619 00bc 1370     		strb	r3, [r2]
 620              	.LBE3:
 485:Generated_Source\PSoC5/cyfitter_cfg.c **** 	}
 486:Generated_Source\PSoC5/cyfitter_cfg.c **** 
 487:Generated_Source\PSoC5/cyfitter_cfg.c **** 
 488:Generated_Source\PSoC5/cyfitter_cfg.c **** 	/* Perform second pass device configuration. These items must be configured in specific order afte
 489:Generated_Source\PSoC5/cyfitter_cfg.c **** 	CYCONFIGCPY((void CYFAR *)(CYREG_PRT0_DR), (const void CYFAR *)(BS_IOPINS0_0_VAL), 10u);
 621              		.loc 1 489 0
 622 00be 2246     		mov	r2, r4
 623 00c0 01F17F71 		add	r1, r1, #66846720
 624 00c4 01F6A851 		addw	r1, r1, #3496
 625 00c8 2248     		ldr	r0, .L35+36
 626 00ca FFF7FEFF 		bl	CYCONFIGCPY
 627              	.LVL47:
 490:Generated_Source\PSoC5/cyfitter_cfg.c **** 	CYCONFIGCPY((void CYFAR *)(CYREG_PRT12_DR), (const void CYFAR *)(BS_IOPINS0_7_VAL), 10u);
 628              		.loc 1 490 0
 629 00ce 2246     		mov	r2, r4
 630 00d0 2149     		ldr	r1, .L35+40
 631 00d2 2248     		ldr	r0, .L35+44
 632 00d4 FFF7FEFF 		bl	CYCONFIGCPY
 633              	.LVL48:
 491:Generated_Source\PSoC5/cyfitter_cfg.c **** 	CYCONFIGCPY((void CYFAR *)(CYREG_PRT15_DM0), (const void CYFAR *)(BS_IOPINS0_8_VAL), 8u);
 634              		.loc 1 491 0
 635 00d8 0822     		movs	r2, #8
 636 00da 2149     		ldr	r1, .L35+48
 637 00dc 2148     		ldr	r0, .L35+52
 638 00de FFF7FEFF 		bl	CYCONFIGCPY
 639              	.LVL49:
 492:Generated_Source\PSoC5/cyfitter_cfg.c **** 	CYCONFIGCPY((void CYFAR *)(CYREG_PRT1_DR), (const void CYFAR *)(BS_IOPINS0_1_VAL), 10u);
 640              		.loc 1 492 0
 641 00e2 2246     		mov	r2, r4
 642 00e4 2049     		ldr	r1, .L35+56
 643 00e6 2148     		ldr	r0, .L35+60
 644 00e8 FFF7FEFF 		bl	CYCONFIGCPY
 645              	.LVL50:
 493:Generated_Source\PSoC5/cyfitter_cfg.c **** 	CYCONFIGCPY((void CYFAR *)(CYREG_PRT2_DM0), (const void CYFAR *)(BS_IOPINS0_2_VAL), 8u);
 646              		.loc 1 493 0
 647 00ec 0822     		movs	r2, #8
 648 00ee 2049     		ldr	r1, .L35+64
 649 00f0 2048     		ldr	r0, .L35+68
 650 00f2 FFF7FEFF 		bl	CYCONFIGCPY
 651              	.LVL51:
 494:Generated_Source\PSoC5/cyfitter_cfg.c **** 	CYCONFIGCPY((void CYFAR *)(CYREG_PRT3_DM0), (const void CYFAR *)(BS_IOPINS0_3_VAL), 8u);
 652              		.loc 1 494 0
 653 00f6 0822     		movs	r2, #8
 654 00f8 1F49     		ldr	r1, .L35+72
 655 00fa 2048     		ldr	r0, .L35+76
 656 00fc FFF7FEFF 		bl	CYCONFIGCPY
ARM GAS  C:\Users\daani\AppData\Local\Temp\ccUeLPWl.s 			page 22


 657              	.LVL52:
 495:Generated_Source\PSoC5/cyfitter_cfg.c **** 	/* Switch Boost to the precision bandgap reference from its internal reference */
 496:Generated_Source\PSoC5/cyfitter_cfg.c **** 	CY_SET_REG8((void CYXDATA *)CYREG_BOOST_CR2, (CY_GET_REG8((void CYXDATA *)CYREG_BOOST_CR2) | 0x08u
 658              		.loc 1 496 0
 659 0100 1F4A     		ldr	r2, .L35+80
 660 0102 1378     		ldrb	r3, [r2]	@ zero_extendqisi2
 661 0104 43F00803 		orr	r3, r3, #8
 662 0108 1370     		strb	r3, [r2]
 497:Generated_Source\PSoC5/cyfitter_cfg.c **** 
 498:Generated_Source\PSoC5/cyfitter_cfg.c **** 	/* Set Flash Cycles based on max possible frequency in case a glitch occurs during ClockSetup(). *
 499:Generated_Source\PSoC5/cyfitter_cfg.c **** 	CY_SET_XTND_REG8((void CYFAR *)(CYREG_CACHE_CC_CTL), (((CYDEV_INSTRUCT_CACHE_ENABLED) != 0) ? 0x61
 663              		.loc 1 499 0
 664 010a 1E4C     		ldr	r4, .L35+84
 665 010c 6123     		movs	r3, #97
 666 010e 2370     		strb	r3, [r4]
 500:Generated_Source\PSoC5/cyfitter_cfg.c **** 	/* Setup clocks based on selections from Clock DWR */
 501:Generated_Source\PSoC5/cyfitter_cfg.c **** 	ClockSetup();
 667              		.loc 1 501 0
 668 0110 FFF7FEFF 		bl	ClockSetup
 669              	.LVL53:
 502:Generated_Source\PSoC5/cyfitter_cfg.c **** 	/* Set Flash Cycles based on newly configured 24.00MHz Bus Clock. */
 503:Generated_Source\PSoC5/cyfitter_cfg.c **** 	CY_SET_XTND_REG8((void CYFAR *)(CYREG_CACHE_CC_CTL), (((CYDEV_INSTRUCT_CACHE_ENABLED) != 0) ? 0x81
 670              		.loc 1 503 0
 671 0114 8123     		movs	r3, #129
 672 0116 2370     		strb	r3, [r4]
 504:Generated_Source\PSoC5/cyfitter_cfg.c **** 	CY_SET_XTND_REG8((void CYFAR *)(CYREG_PANTHER_WAITPIPE), 0x01u);
 673              		.loc 1 504 0
 674 0118 0122     		movs	r2, #1
 675 011a 1B4B     		ldr	r3, .L35+88
 676 011c 1A70     		strb	r2, [r3]
 505:Generated_Source\PSoC5/cyfitter_cfg.c **** 
 506:Generated_Source\PSoC5/cyfitter_cfg.c **** 	/* Perform basic analog initialization to defaults */
 507:Generated_Source\PSoC5/cyfitter_cfg.c **** 	AnalogSetDefault();
 677              		.loc 1 507 0
 678 011e FFF7FEFF 		bl	AnalogSetDefault
 679              	.LVL54:
 508:Generated_Source\PSoC5/cyfitter_cfg.c **** 
 509:Generated_Source\PSoC5/cyfitter_cfg.c **** 	/* Configure alternate active mode */
 510:Generated_Source\PSoC5/cyfitter_cfg.c **** 	CYCONFIGCPY((void CYFAR *)CYDEV_PM_STBY_BASE, (const void CYFAR *)CYDEV_PM_ACT_BASE, 14u);
 680              		.loc 1 510 0
 681 0122 0E22     		movs	r2, #14
 682 0124 2946     		mov	r1, r5
 683 0126 1948     		ldr	r0, .L35+92
 684 0128 FFF7FEFF 		bl	CYCONFIGCPY
 685              	.LVL55:
 686 012c 38BD     		pop	{r3, r4, r5, pc}
 687              	.L36:
 688 012e 00BF     		.align	2
 689              	.L35:
 690 0130 E8460040 		.word	1073759976
 691 0134 00000000 		.word	.LANCHOR0
 692 0138 A4000048 		.word	1207959716
 693 013c 83580040 		.word	1073764483
 694 0140 04040044 		.word	1140851716
 695 0144 040404C4 		.word	-1006369788
 696 0148 D8060140 		.word	1073809112
 697 014c 04040444 		.word	1141113860
ARM GAS  C:\Users\daani\AppData\Local\Temp\ccUeLPWl.s 			page 23


 698 0150 A0430040 		.word	1073759136
 699 0154 00510040 		.word	1073762560
 700 0158 B8110048 		.word	1207964088
 701 015c C0510040 		.word	1073762752
 702 0160 C4110048 		.word	1207964100
 703 0164 F2510040 		.word	1073762802
 704 0168 CC110048 		.word	1207964108
 705 016c 10510040 		.word	1073762576
 706 0170 D8110048 		.word	1207964120
 707 0174 22510040 		.word	1073762594
 708 0178 E0110048 		.word	1207964128
 709 017c 32510040 		.word	1073762610
 710 0180 22430040 		.word	1073759010
 711 0184 00480040 		.word	1073760256
 712 0188 04000840 		.word	1074266116
 713 018c B0430040 		.word	1073759152
 714              		.cfi_endproc
 715              	.LFE8:
 716              		.size	cyfitter_cfg, .-cyfitter_cfg
 717              		.section	.rodata
 718              		.align	2
 719              		.set	.LANCHOR0,. + 0
 720              		.type	cfg_memset_list.5008, %object
 721              		.size	cfg_memset_list.5008, 48
 722              	cfg_memset_list.5008:
 723 0000 40510040 		.word	1073762624
 724 0004 3000     		.short	48
 725 0006 00000140 		.4byte	1073807360
 726 000a 0010     		.short	4096
 727 000c 00140140 		.word	1073812480
 728 0010 8002     		.short	640
 729 0012 00170140 		.4byte	1073813248
 730 0016 0001     		.short	256
 731 0018 80180140 		.word	1073813632
 732 001c 8003     		.short	896
 733 001e 00400140 		.4byte	1073823744
 734 0022 000A     		.short	2560
 735 0024 004C0140 		.word	1073826816
 736 0028 0002     		.short	512
 737 002a 00500140 		.4byte	1073827840
 738 002e 2000     		.short	32
 739              		.type	cfg_memcpy_list.5009, %object
 740              		.size	cfg_memcpy_list.5009, 30
 741              	cfg_memcpy_list.5009:
 742 0030 60520040 		.word	1073762912
 743 0034 A4100048 		.word	1207963812
 744 0038 0600     		.short	6
 745 003a 80160140 		.4byte	1073813120
 746 003e AC100048 		.4byte	1207963820
 747 0042 8000     		.short	128
 748 0044 00180140 		.word	1073813504
 749 0048 2C110048 		.word	1207963948
 750 004c 8000     		.short	128
 751              		.text
 752              	.Letext0:
 753              		.file 2 "c:\\program files (x86)\\cypress\\psoc creator\\4.1\\psoc creator\\import\\gnu\\arm\\5.4.
 754              		.file 3 "Generated_Source\\PSoC5\\cytypes.h"
ARM GAS  C:\Users\daani\AppData\Local\Temp\ccUeLPWl.s 			page 24


 755              		.file 4 "Generated_Source\\PSoC5\\CyLib.h"