ARM GAS  C:\Users\DAANIS~1\AppData\Local\Temp\cc8hOy7c.s 			page 1


   1              		.syntax unified
   2              		.cpu cortex-m3
   3              		.fpu softvfp
   4              		.eabi_attribute 20, 1
   5              		.eabi_attribute 21, 1
   6              		.eabi_attribute 23, 3
   7              		.eabi_attribute 24, 1
   8              		.eabi_attribute 25, 1
   9              		.eabi_attribute 26, 1
  10              		.eabi_attribute 30, 1
  11              		.eabi_attribute 34, 1
  12              		.eabi_attribute 18, 4
  13              		.thumb
  14              		.syntax unified
  15              		.file	"main.c"
  16              		.text
  17              	.Ltext0:
  18              		.cfi_sections	.debug_frame
  19              		.global	__aeabi_i2d
  20              		.global	__aeabi_dsub
  21              		.global	__aeabi_ddiv
  22              		.global	__aeabi_d2f
  23              		.section	.text.TimerF1_ISR_Handler,"ax",%progbits
  24              		.align	2
  25              		.global	TimerF1_ISR_Handler
  26              		.thumb
  27              		.thumb_func
  28              		.type	TimerF1_ISR_Handler, %function
  29              	TimerF1_ISR_Handler:
  30              	.LFB64:
  31              		.file 1 "main.c"
   1:main.c        **** 
   2:main.c        **** /* ========================================
   3:main.c        ****  *
   4:main.c        ****  * Copyright YOUR COMPANY, THE YEAR
   5:main.c        ****  * All Rights Reserved
   6:main.c        ****  * UNPUBLISHED, LICENSED SOFTWARE.
   7:main.c        ****  *
   8:main.c        ****  * CONFIDENTIAL AND PROPRIETARY INFORMATION
   9:main.c        ****  * WHICH IS THE PROPERTY OF your company.
  10:main.c        ****  *
  11:main.c        ****  * ========================================
  12:main.c        **** */
  13:main.c        **** 
  14:main.c        **** // For 50 cm, PWM 20 for Left, 18 for Right, we get LeftCount = 16991, RightCount = 18447. Implies 
  15:main.c        **** // To turn left, set direction as 1 in Turn() function. To turn right, set direction as 0 in Turn()
  16:main.c        **** // 
  17:main.c        **** #include "project.h"
  18:main.c        **** #include "stdio.h"
  19:main.c        **** #include "math.h"
  20:main.c        **** #include "colour.h"
  21:main.c        **** #include "stdlib.h"
  22:main.c        **** #include "wheels.h"
  23:main.c        **** 
  24:main.c        **** 
  25:main.c        **** 
  26:main.c        **** // Function Prototypes
ARM GAS  C:\Users\DAANIS~1\AppData\Local\Temp\cc8hOy7c.s 			page 2


  27:main.c        **** void Finish_Tasks(void);
  28:main.c        **** void OnOff();
  29:main.c        **** float Ultrasonic_Sensor(int usonic);
  30:main.c        **** void Reset_Tasks();
  31:main.c        **** void UltraSonics();
  32:main.c        **** int * Read_Order();
  33:main.c        **** int Move_to_Pucks(int obstacle_location);
  34:main.c        **** int Line_Up_Puck(int colour);
  35:main.c        **** void Pick_Up_Puck();
  36:main.c        **** void Backtrack(int obstacle_location);
  37:main.c        **** void Stack();
  38:main.c        **** 
  39:main.c        **** // Defining Variables
  40:main.c        **** char string[100];
  41:main.c        **** int i = 0;
  42:main.c        **** int flag = 1;
  43:main.c        **** int obstacle_location; // 0 for left or centre, 1 for right
  44:main.c        **** int pucks_stacked = 0;
  45:main.c        **** int given_pattern[5];
  46:main.c        **** int * pattern_pointer;
  47:main.c        **** int32 LeftCount = 0;
  48:main.c        **** int32 RightCount = 0;
  49:main.c        **** int ratio;
  50:main.c        **** int orientation;
  51:main.c        **** int location[2];
  52:main.c        **** float F1Coord = 0;
  53:main.c        **** float F2Coord = 0;
  54:main.c        **** float LeftCoord = 0;
  55:main.c        **** float RightCoord = 0;
  56:main.c        **** 
  57:main.c        **** 
  58:main.c        **** // Declare Ultrasonic Interrupts
  59:main.c        **** CY_ISR(TimerF1_ISR_Handler) {
  32              		.loc 1 59 0
  33              		.cfi_startproc
  34              		@ args = 0, pretend = 0, frame = 0
  35              		@ frame_needed = 0, uses_anonymous_args = 0
  36 0000 08B5     		push	{r3, lr}
  37              		.cfi_def_cfa_offset 8
  38              		.cfi_offset 3, -8
  39              		.cfi_offset 14, -4
  60:main.c        ****   Timer_ULTRASONIC_F1_ReadStatusRegister();
  40              		.loc 1 60 0
  41 0002 FFF7FEFF 		bl	Timer_ULTRASONIC_F1_ReadStatusRegister
  42              	.LVL0:
  61:main.c        ****    uint16  TimerCount = Timer_ULTRASONIC_F1_ReadCounter();
  43              		.loc 1 61 0
  44 0006 FFF7FEFF 		bl	Timer_ULTRASONIC_F1_ReadCounter
  45              	.LVL1:
  62:main.c        ****   F1Coord = (65535.0 - TimerCount) / 58.0; //distance measured in cm
  46              		.loc 1 62 0
  47 000a FFF7FEFF 		bl	__aeabi_i2d
  48              	.LVL2:
  49 000e 0246     		mov	r2, r0
  50 0010 0B46     		mov	r3, r1
  51 0012 07A1     		adr	r1, .L3
  52 0014 D1E90001 		ldrd	r0, [r1]
ARM GAS  C:\Users\DAANIS~1\AppData\Local\Temp\cc8hOy7c.s 			page 3


  53 0018 FFF7FEFF 		bl	__aeabi_dsub
  54              	.LVL3:
  55 001c 0022     		movs	r2, #0
  56 001e 064B     		ldr	r3, .L3+8
  57 0020 FFF7FEFF 		bl	__aeabi_ddiv
  58              	.LVL4:
  59 0024 FFF7FEFF 		bl	__aeabi_d2f
  60              	.LVL5:
  61 0028 044B     		ldr	r3, .L3+12
  62 002a 1860     		str	r0, [r3]	@ float
  63 002c 08BD     		pop	{r3, pc}
  64              	.L4:
  65 002e 00BF     		.align	3
  66              	.L3:
  67 0030 00000000 		.word	0
  68 0034 E0FFEF40 		.word	1089470432
  69 0038 00004D40 		.word	1078788096
  70 003c 00000000 		.word	.LANCHOR0
  71              		.cfi_endproc
  72              	.LFE64:
  73              		.size	TimerF1_ISR_Handler, .-TimerF1_ISR_Handler
  74              		.section	.text.TimerF2_ISR_Handler,"ax",%progbits
  75              		.align	2
  76              		.global	TimerF2_ISR_Handler
  77              		.thumb
  78              		.thumb_func
  79              		.type	TimerF2_ISR_Handler, %function
  80              	TimerF2_ISR_Handler:
  81              	.LFB65:
  63:main.c        **** }
  64:main.c        **** 
  65:main.c        **** CY_ISR(TimerF2_ISR_Handler) {
  82              		.loc 1 65 0
  83              		.cfi_startproc
  84              		@ args = 0, pretend = 0, frame = 0
  85              		@ frame_needed = 0, uses_anonymous_args = 0
  86 0000 08B5     		push	{r3, lr}
  87              		.cfi_def_cfa_offset 8
  88              		.cfi_offset 3, -8
  89              		.cfi_offset 14, -4
  66:main.c        ****   Timer_ULTRASONIC_F2_ReadStatusRegister();
  90              		.loc 1 66 0
  91 0002 FFF7FEFF 		bl	Timer_ULTRASONIC_F2_ReadStatusRegister
  92              	.LVL6:
  67:main.c        ****   uint16  TimerCount = Timer_ULTRASONIC_F2_ReadCounter();
  93              		.loc 1 67 0
  94 0006 FFF7FEFF 		bl	Timer_ULTRASONIC_F2_ReadCounter
  95              	.LVL7:
  68:main.c        ****   F2Coord = (65535.0 - TimerCount) / 58.0; //distance measured in cm
  96              		.loc 1 68 0
  97 000a FFF7FEFF 		bl	__aeabi_i2d
  98              	.LVL8:
  99 000e 0246     		mov	r2, r0
 100 0010 0B46     		mov	r3, r1
 101 0012 07A1     		adr	r1, .L7
 102 0014 D1E90001 		ldrd	r0, [r1]
 103 0018 FFF7FEFF 		bl	__aeabi_dsub
ARM GAS  C:\Users\DAANIS~1\AppData\Local\Temp\cc8hOy7c.s 			page 4


 104              	.LVL9:
 105 001c 0022     		movs	r2, #0
 106 001e 064B     		ldr	r3, .L7+8
 107 0020 FFF7FEFF 		bl	__aeabi_ddiv
 108              	.LVL10:
 109 0024 FFF7FEFF 		bl	__aeabi_d2f
 110              	.LVL11:
 111 0028 044B     		ldr	r3, .L7+12
 112 002a 5860     		str	r0, [r3, #4]	@ float
 113 002c 08BD     		pop	{r3, pc}
 114              	.L8:
 115 002e 00BF     		.align	3
 116              	.L7:
 117 0030 00000000 		.word	0
 118 0034 E0FFEF40 		.word	1089470432
 119 0038 00004D40 		.word	1078788096
 120 003c 00000000 		.word	.LANCHOR0
 121              		.cfi_endproc
 122              	.LFE65:
 123              		.size	TimerF2_ISR_Handler, .-TimerF2_ISR_Handler
 124              		.section	.text.TimerL_ISR_Handler,"ax",%progbits
 125              		.align	2
 126              		.global	TimerL_ISR_Handler
 127              		.thumb
 128              		.thumb_func
 129              		.type	TimerL_ISR_Handler, %function
 130              	TimerL_ISR_Handler:
 131              	.LFB66:
  69:main.c        **** }
  70:main.c        **** 
  71:main.c        **** CY_ISR(TimerL_ISR_Handler) {
 132              		.loc 1 71 0
 133              		.cfi_startproc
 134              		@ args = 0, pretend = 0, frame = 0
 135              		@ frame_needed = 0, uses_anonymous_args = 0
 136 0000 08B5     		push	{r3, lr}
 137              		.cfi_def_cfa_offset 8
 138              		.cfi_offset 3, -8
 139              		.cfi_offset 14, -4
  72:main.c        ****   Timer_ULTRASONIC_L_ReadStatusRegister();
 140              		.loc 1 72 0
 141 0002 FFF7FEFF 		bl	Timer_ULTRASONIC_L_ReadStatusRegister
 142              	.LVL12:
  73:main.c        ****   uint16  TimerCount = Timer_ULTRASONIC_L_ReadCounter();
 143              		.loc 1 73 0
 144 0006 FFF7FEFF 		bl	Timer_ULTRASONIC_L_ReadCounter
 145              	.LVL13:
  74:main.c        ****   LeftCoord = (65535.0 - TimerCount) / 58.0; //distance measured in cm
 146              		.loc 1 74 0
 147 000a FFF7FEFF 		bl	__aeabi_i2d
 148              	.LVL14:
 149 000e 0246     		mov	r2, r0
 150 0010 0B46     		mov	r3, r1
 151 0012 07A1     		adr	r1, .L11
 152 0014 D1E90001 		ldrd	r0, [r1]
 153 0018 FFF7FEFF 		bl	__aeabi_dsub
 154              	.LVL15:
ARM GAS  C:\Users\DAANIS~1\AppData\Local\Temp\cc8hOy7c.s 			page 5


 155 001c 0022     		movs	r2, #0
 156 001e 064B     		ldr	r3, .L11+8
 157 0020 FFF7FEFF 		bl	__aeabi_ddiv
 158              	.LVL16:
 159 0024 FFF7FEFF 		bl	__aeabi_d2f
 160              	.LVL17:
 161 0028 044B     		ldr	r3, .L11+12
 162 002a 9860     		str	r0, [r3, #8]	@ float
 163 002c 08BD     		pop	{r3, pc}
 164              	.L12:
 165 002e 00BF     		.align	3
 166              	.L11:
 167 0030 00000000 		.word	0
 168 0034 E0FFEF40 		.word	1089470432
 169 0038 00004D40 		.word	1078788096
 170 003c 00000000 		.word	.LANCHOR0
 171              		.cfi_endproc
 172              	.LFE66:
 173              		.size	TimerL_ISR_Handler, .-TimerL_ISR_Handler
 174              		.section	.text.TimerR_ISR_Handler,"ax",%progbits
 175              		.align	2
 176              		.global	TimerR_ISR_Handler
 177              		.thumb
 178              		.thumb_func
 179              		.type	TimerR_ISR_Handler, %function
 180              	TimerR_ISR_Handler:
 181              	.LFB67:
  75:main.c        **** }
  76:main.c        **** 
  77:main.c        **** CY_ISR(TimerR_ISR_Handler) {
 182              		.loc 1 77 0
 183              		.cfi_startproc
 184              		@ args = 0, pretend = 0, frame = 0
 185              		@ frame_needed = 0, uses_anonymous_args = 0
 186 0000 08B5     		push	{r3, lr}
 187              		.cfi_def_cfa_offset 8
 188              		.cfi_offset 3, -8
 189              		.cfi_offset 14, -4
  78:main.c        ****   Timer_ULTRASONIC_R_ReadStatusRegister();
 190              		.loc 1 78 0
 191 0002 FFF7FEFF 		bl	Timer_ULTRASONIC_R_ReadStatusRegister
 192              	.LVL18:
  79:main.c        ****   uint16 TimerCount = Timer_ULTRASONIC_R_ReadCounter();
 193              		.loc 1 79 0
 194 0006 FFF7FEFF 		bl	Timer_ULTRASONIC_R_ReadCounter
 195              	.LVL19:
  80:main.c        ****   RightCoord = (65535.0 - TimerCount) / 58.0; //distance measured in cm
 196              		.loc 1 80 0
 197 000a FFF7FEFF 		bl	__aeabi_i2d
 198              	.LVL20:
 199 000e 0246     		mov	r2, r0
 200 0010 0B46     		mov	r3, r1
 201 0012 07A1     		adr	r1, .L15
 202 0014 D1E90001 		ldrd	r0, [r1]
 203 0018 FFF7FEFF 		bl	__aeabi_dsub
 204              	.LVL21:
 205 001c 0022     		movs	r2, #0
ARM GAS  C:\Users\DAANIS~1\AppData\Local\Temp\cc8hOy7c.s 			page 6


 206 001e 064B     		ldr	r3, .L15+8
 207 0020 FFF7FEFF 		bl	__aeabi_ddiv
 208              	.LVL22:
 209 0024 FFF7FEFF 		bl	__aeabi_d2f
 210              	.LVL23:
 211 0028 044B     		ldr	r3, .L15+12
 212 002a D860     		str	r0, [r3, #12]	@ float
 213 002c 08BD     		pop	{r3, pc}
 214              	.L16:
 215 002e 00BF     		.align	3
 216              	.L15:
 217 0030 00000000 		.word	0
 218 0034 E0FFEF40 		.word	1089470432
 219 0038 00004D40 		.word	1078788096
 220 003c 00000000 		.word	.LANCHOR0
 221              		.cfi_endproc
 222              	.LFE67:
 223              		.size	TimerR_ISR_Handler, .-TimerR_ISR_Handler
 224              		.section	.text.pattern,"ax",%progbits
 225              		.align	2
 226              		.global	pattern
 227              		.thumb
 228              		.thumb_func
 229              		.type	pattern, %function
 230              	pattern:
 231              	.LFB68:
  81:main.c        **** }
  82:main.c        **** 
  83:main.c        **** int * pattern(int yus[]) {
 232              		.loc 1 83 0
 233              		.cfi_startproc
 234              		@ args = 0, pretend = 0, frame = 0
 235              		@ frame_needed = 0, uses_anonymous_args = 0
 236              		@ link register save eliminated.
 237              	.LVL24:
 238              	.LBB2:
  84:main.c        ****     int ayus[5];
  85:main.c        ****     for (int i = 0; i < 5; i++) {
 239              		.loc 1 85 0
 240 0000 0023     		movs	r3, #0
 241 0002 00E0     		b	.L18
 242              	.LVL25:
 243              	.L19:
 244              		.loc 1 85 0 is_stmt 0 discriminator 3
 245 0004 0133     		adds	r3, r3, #1
 246              	.LVL26:
 247              	.L18:
 248              		.loc 1 85 0 discriminator 1
 249 0006 042B     		cmp	r3, #4
 250 0008 FCDD     		ble	.L19
 251              	.LBE2:
  86:main.c        ****         ayus[i] = yus[i];
  87:main.c        ****     }
  88:main.c        ****      
  89:main.c        ****     return yus; // Returns pointer to first element of array
  90:main.c        **** }
 252              		.loc 1 90 0 is_stmt 1
ARM GAS  C:\Users\DAANIS~1\AppData\Local\Temp\cc8hOy7c.s 			page 7


 253 000a 7047     		bx	lr
 254              		.cfi_endproc
 255              	.LFE68:
 256              		.size	pattern, .-pattern
 257              		.section	.text.Finish_Tasks,"ax",%progbits
 258              		.align	2
 259              		.global	Finish_Tasks
 260              		.thumb
 261              		.thumb_func
 262              		.type	Finish_Tasks, %function
 263              	Finish_Tasks:
 264              	.LFB70:
  91:main.c        **** 
  92:main.c        **** int main(void)
  93:main.c        **** {
  94:main.c        ****     CyGlobalIntEnable; /* Enable global interrupts. */
  95:main.c        ****     
  96:main.c        ****     
  97:main.c        ****     
  98:main.c        ****     /* Place your initialization/startup code here (e.g. MyInst_Start()) */
  99:main.c        ****         Clock_1_Start();
 100:main.c        **** //        QuadDec_Left_Start();
 101:main.c        **** //        QuadDec_Right_Start();        
 102:main.c        ****         UART_Start(); 
 103:main.c        **** //        IDAC8_Start();
 104:main.c        **** //        ADC_Start(); 
 105:main.c        **** //        TIA_Start();
 106:main.c        **** //        IDAC8_Sleep();
 107:main.c        **** //		Clock_PWM_Start();
 108:main.c        **** //        PWM_Grip_Start();
 109:main.c        **** //        PWM_Lift_Start();
 110:main.c        **** //		
 111:main.c        **** //		// Initialise all interrupts 
 112:main.c        **** //		isr_F1_StartEx(TimerF1_ISR_Handler);
 113:main.c        **** //		isr_F2_StartEx(TimerF2_ISR_Handler);
 114:main.c        **** //		isr_L_StartEx(TimerL_ISR_Handler);
 115:main.c        **** //		isr_R_StartEx(TimerR_ISR_Handler);
 116:main.c        **** //
 117:main.c        **** //		// Start all timers
 118:main.c        **** //		Timer_ULTRASONIC_F1_Start();
 119:main.c        **** //		Timer_ULTRASONIC_F2_Start();
 120:main.c        **** //		Timer_ULTRASONIC_L_Start();
 121:main.c        **** //		Timer_ULTRASONIC_R_Start();
 122:main.c        **** //      zero stepper
 123:main.c        ****     char lul[] = "2 plus 2 is 4 - 1 thats 3 quick maffs\n";
 124:main.c        ****     UART_PutString(lul);
 125:main.c        ****     
 126:main.c        ****     int array[] = {1, 2, 3, 5, 6};
 127:main.c        ****     char skrrt[30];
 128:main.c        **** //    pattern_pointer = Read_Order();
 129:main.c        ****     int * das_it;
 130:main.c        ****     das_it = pattern(array);
 131:main.c        ****     int i;
 132:main.c        ****     for (i = 0; i < 5; i++) {
 133:main.c        ****         given_pattern[i] = *(das_it + i);
 134:main.c        ****         sprintf(lul, "The ting go %d\n", given_pattern[i]);
 135:main.c        ****         UART_PutString(lul);
ARM GAS  C:\Users\DAANIS~1\AppData\Local\Temp\cc8hOy7c.s 			page 8


 136:main.c        ****         CyDelay(1000);
 137:main.c        ****     }
 138:main.c        ****     // Obstacle location defined using switch
 139:main.c        ****     
 140:main.c        ****     while (pucks_stacked < 5) {
 141:main.c        ****         // Initialise stepper
 142:main.c        ****         Move_to_Pucks(obstacle_location);
 143:main.c        ****         Line_Up_Puck(given_pattern[pucks_stacked]);
 144:main.c        ****         Pick_Up_Puck();
 145:main.c        ****         Backtrack(obstacle_location);
 146:main.c        ****         Stack();
 147:main.c        ****         pucks_stacked++;
 148:main.c        ****         Backtrack(obstacle_location);
 149:main.c        ****         
 150:main.c        ****     }
 151:main.c        **** }
 152:main.c        **** 
 153:main.c        **** void Finish_Tasks(void) 
 154:main.c        **** {
 265              		.loc 1 154 0
 266              		.cfi_startproc
 267              		@ args = 0, pretend = 0, frame = 0
 268              		@ frame_needed = 0, uses_anonymous_args = 0
 269              		@ link register save eliminated.
 155:main.c        **** 	i = 1000;
 270              		.loc 1 155 0
 271 0000 4FF47A72 		mov	r2, #1000
 272 0004 014B     		ldr	r3, .L21
 273 0006 1A61     		str	r2, [r3, #16]
 274 0008 7047     		bx	lr
 275              	.L22:
 276 000a 00BF     		.align	2
 277              	.L21:
 278 000c 00000000 		.word	.LANCHOR0
 279              		.cfi_endproc
 280              	.LFE70:
 281              		.size	Finish_Tasks, .-Finish_Tasks
 282              		.section	.text.OnOff,"ax",%progbits
 283              		.align	2
 284              		.global	OnOff
 285              		.thumb
 286              		.thumb_func
 287              		.type	OnOff, %function
 288              	OnOff:
 289              	.LFB71:
 156:main.c        **** }
 157:main.c        **** 
 158:main.c        **** void OnOff()
 159:main.c        **** {
 290              		.loc 1 159 0
 291              		.cfi_startproc
 292              		@ args = 0, pretend = 0, frame = 0
 293              		@ frame_needed = 0, uses_anonymous_args = 0
 294 0000 08B5     		push	{r3, lr}
 295              		.cfi_def_cfa_offset 8
 296              		.cfi_offset 3, -8
 297              		.cfi_offset 14, -4
ARM GAS  C:\Users\DAANIS~1\AppData\Local\Temp\cc8hOy7c.s 			page 9


 160:main.c        ****     if (Flag_Read() == 1)
 298              		.loc 1 160 0
 299 0002 FFF7FEFF 		bl	Flag_Read
 300              	.LVL27:
 301 0006 0128     		cmp	r0, #1
 302 0008 13D1     		bne	.L23
 161:main.c        ****     {
 162:main.c        ****         CyDelay(20);
 303              		.loc 1 162 0
 304 000a 1420     		movs	r0, #20
 305 000c FFF7FEFF 		bl	CyDelay
 306              	.LVL28:
 163:main.c        ****         if (Flag_Read() == 1)
 307              		.loc 1 163 0
 308 0010 FFF7FEFF 		bl	Flag_Read
 309              	.LVL29:
 310 0014 0128     		cmp	r0, #1
 311 0016 0CD1     		bne	.L23
 164:main.c        ****         {
 165:main.c        ****             flag = 1;
 312              		.loc 1 165 0
 313 0018 064B     		ldr	r3, .L26
 314 001a 1860     		str	r0, [r3]
 166:main.c        ****             LED_Write(1);
 315              		.loc 1 166 0
 316 001c FFF7FEFF 		bl	LED_Write
 317              	.LVL30:
 167:main.c        ****             i++;
 318              		.loc 1 167 0
 319 0020 054A     		ldr	r2, .L26+4
 320 0022 1369     		ldr	r3, [r2, #16]
 321 0024 0133     		adds	r3, r3, #1
 322 0026 1361     		str	r3, [r2, #16]
 168:main.c        ****             if(i == 5)
 323              		.loc 1 168 0
 324 0028 052B     		cmp	r3, #5
 325 002a 02D1     		bne	.L23
 169:main.c        ****             {
 170:main.c        ****                 i=4;   
 326              		.loc 1 170 0
 327 002c 0422     		movs	r2, #4
 328 002e 024B     		ldr	r3, .L26+4
 329 0030 1A61     		str	r2, [r3, #16]
 330              	.L23:
 331 0032 08BD     		pop	{r3, pc}
 332              	.L27:
 333              		.align	2
 334              	.L26:
 335 0034 00000000 		.word	.LANCHOR1
 336 0038 00000000 		.word	.LANCHOR0
 337              		.cfi_endproc
 338              	.LFE71:
 339              		.size	OnOff, .-OnOff
 340              		.section	.text.Reset_Tasks,"ax",%progbits
 341              		.align	2
 342              		.global	Reset_Tasks
 343              		.thumb
ARM GAS  C:\Users\DAANIS~1\AppData\Local\Temp\cc8hOy7c.s 			page 10


 344              		.thumb_func
 345              		.type	Reset_Tasks, %function
 346              	Reset_Tasks:
 347              	.LFB72:
 171:main.c        ****             }
 172:main.c        ****         }
 173:main.c        ****     }
 174:main.c        **** }
 175:main.c        **** 
 176:main.c        **** void Reset_Tasks()
 177:main.c        **** {
 348              		.loc 1 177 0
 349              		.cfi_startproc
 350              		@ args = 0, pretend = 0, frame = 0
 351              		@ frame_needed = 0, uses_anonymous_args = 0
 352 0000 10B5     		push	{r4, lr}
 353              		.cfi_def_cfa_offset 8
 354              		.cfi_offset 4, -8
 355              		.cfi_offset 14, -4
 178:main.c        ****     if (Reset_Read() == 0)
 356              		.loc 1 178 0
 357 0002 FFF7FEFF 		bl	Reset_Read
 358              	.LVL31:
 359 0006 B8BB     		cbnz	r0, .L28
 179:main.c        ****     {
 180:main.c        ****         CyDelay(20);
 360              		.loc 1 180 0
 361 0008 1420     		movs	r0, #20
 362 000a FFF7FEFF 		bl	CyDelay
 363              	.LVL32:
 181:main.c        ****         if (Reset_Read() == 0)
 364              		.loc 1 181 0
 365 000e FFF7FEFF 		bl	Reset_Read
 366              	.LVL33:
 367 0012 88BB     		cbnz	r0, .L28
 182:main.c        ****         {
 183:main.c        ****             flag = 0;
 368              		.loc 1 183 0
 369 0014 0024     		movs	r4, #0
 370 0016 194B     		ldr	r3, .L31
 371 0018 1C60     		str	r4, [r3]
 184:main.c        ****             LED_Write(1);
 372              		.loc 1 184 0
 373 001a 0120     		movs	r0, #1
 374 001c FFF7FEFF 		bl	LED_Write
 375              	.LVL34:
 185:main.c        ****             CyDelay(100);
 376              		.loc 1 185 0
 377 0020 6420     		movs	r0, #100
 378 0022 FFF7FEFF 		bl	CyDelay
 379              	.LVL35:
 186:main.c        ****             LED_Write(0);
 380              		.loc 1 186 0
 381 0026 2046     		mov	r0, r4
 382 0028 FFF7FEFF 		bl	LED_Write
 383              	.LVL36:
 187:main.c        ****             CyDelay(100);
ARM GAS  C:\Users\DAANIS~1\AppData\Local\Temp\cc8hOy7c.s 			page 11


 384              		.loc 1 187 0
 385 002c 6420     		movs	r0, #100
 386 002e FFF7FEFF 		bl	CyDelay
 387              	.LVL37:
 188:main.c        ****             LED_Write(1);
 388              		.loc 1 188 0
 389 0032 0120     		movs	r0, #1
 390 0034 FFF7FEFF 		bl	LED_Write
 391              	.LVL38:
 189:main.c        ****             CyDelay(100);
 392              		.loc 1 189 0
 393 0038 6420     		movs	r0, #100
 394 003a FFF7FEFF 		bl	CyDelay
 395              	.LVL39:
 190:main.c        ****             LED_Write(0);
 396              		.loc 1 190 0
 397 003e 2046     		mov	r0, r4
 398 0040 FFF7FEFF 		bl	LED_Write
 399              	.LVL40:
 191:main.c        ****             CyDelay(100);
 400              		.loc 1 191 0
 401 0044 6420     		movs	r0, #100
 402 0046 FFF7FEFF 		bl	CyDelay
 403              	.LVL41:
 192:main.c        ****             LED_Write(1);
 404              		.loc 1 192 0
 405 004a 0120     		movs	r0, #1
 406 004c FFF7FEFF 		bl	LED_Write
 407              	.LVL42:
 193:main.c        ****             CyDelay(100);
 408              		.loc 1 193 0
 409 0050 6420     		movs	r0, #100
 410 0052 FFF7FEFF 		bl	CyDelay
 411              	.LVL43:
 194:main.c        ****             LED_Write(0);
 412              		.loc 1 194 0
 413 0056 2046     		mov	r0, r4
 414 0058 FFF7FEFF 		bl	LED_Write
 415              	.LVL44:
 195:main.c        ****             CyDelay(100);
 416              		.loc 1 195 0
 417 005c 6420     		movs	r0, #100
 418 005e FFF7FEFF 		bl	CyDelay
 419              	.LVL45:
 196:main.c        ****             Buzzer_Write(1);
 420              		.loc 1 196 0
 421 0062 0120     		movs	r0, #1
 422 0064 FFF7FEFF 		bl	Buzzer_Write
 423              	.LVL46:
 197:main.c        ****             CyDelay(100);
 424              		.loc 1 197 0
 425 0068 6420     		movs	r0, #100
 426 006a FFF7FEFF 		bl	CyDelay
 427              	.LVL47:
 198:main.c        ****             Buzzer_Write(0);
 428              		.loc 1 198 0
 429 006e 2046     		mov	r0, r4
ARM GAS  C:\Users\DAANIS~1\AppData\Local\Temp\cc8hOy7c.s 			page 12


 430 0070 FFF7FEFF 		bl	Buzzer_Write
 431              	.LVL48:
 199:main.c        ****             i = 0;
 432              		.loc 1 199 0
 433 0074 024B     		ldr	r3, .L31+4
 434 0076 1C61     		str	r4, [r3, #16]
 435              	.L28:
 436 0078 10BD     		pop	{r4, pc}
 437              	.L32:
 438 007a 00BF     		.align	2
 439              	.L31:
 440 007c 00000000 		.word	.LANCHOR1
 441 0080 00000000 		.word	.LANCHOR0
 442              		.cfi_endproc
 443              	.LFE72:
 444              		.size	Reset_Tasks, .-Reset_Tasks
 445              		.section	.text.Grip_Open,"ax",%progbits
 446              		.align	2
 447              		.global	Grip_Open
 448              		.thumb
 449              		.thumb_func
 450              		.type	Grip_Open, %function
 451              	Grip_Open:
 452              	.LFB73:
 200:main.c        ****         }
 201:main.c        ****     }
 202:main.c        **** }
 203:main.c        **** 
 204:main.c        **** 
 205:main.c        **** int Grip_Open()
 206:main.c        ****     {
 453              		.loc 1 206 0
 454              		.cfi_startproc
 455              		@ args = 0, pretend = 0, frame = 0
 456              		@ frame_needed = 0, uses_anonymous_args = 0
 457 0000 08B5     		push	{r3, lr}
 458              		.cfi_def_cfa_offset 8
 459              		.cfi_offset 3, -8
 460              		.cfi_offset 14, -4
 207:main.c        ****         PWM_Grip_WriteCompare(1050);
 461              		.loc 1 207 0
 462 0002 40F21A40 		movw	r0, #1050
 463 0006 FFF7FEFF 		bl	PWM_Grip_WriteCompare
 464              	.LVL49:
 208:main.c        ****         CyDelay(1000);
 465              		.loc 1 208 0
 466 000a 4FF47A70 		mov	r0, #1000
 467 000e FFF7FEFF 		bl	CyDelay
 468              	.LVL50:
 209:main.c        ****         
 210:main.c        ****         return 0;
 211:main.c        ****     } 
 469              		.loc 1 211 0
 470 0012 0020     		movs	r0, #0
 471 0014 08BD     		pop	{r3, pc}
 472              		.cfi_endproc
 473              	.LFE73:
ARM GAS  C:\Users\DAANIS~1\AppData\Local\Temp\cc8hOy7c.s 			page 13


 474              		.size	Grip_Open, .-Grip_Open
 475 0016 00BF     		.section	.text.Grip_Close,"ax",%progbits
 476              		.align	2
 477              		.global	Grip_Close
 478              		.thumb
 479              		.thumb_func
 480              		.type	Grip_Close, %function
 481              	Grip_Close:
 482              	.LFB74:
 212:main.c        **** 
 213:main.c        **** int Grip_Close()
 214:main.c        ****     {
 483              		.loc 1 214 0
 484              		.cfi_startproc
 485              		@ args = 0, pretend = 0, frame = 0
 486              		@ frame_needed = 0, uses_anonymous_args = 0
 487 0000 08B5     		push	{r3, lr}
 488              		.cfi_def_cfa_offset 8
 489              		.cfi_offset 3, -8
 490              		.cfi_offset 14, -4
 215:main.c        ****         PWM_Grip_WriteCompare(1290);
 491              		.loc 1 215 0
 492 0002 40F20A50 		movw	r0, #1290
 493 0006 FFF7FEFF 		bl	PWM_Grip_WriteCompare
 494              	.LVL51:
 216:main.c        ****         CyDelay(1000);
 495              		.loc 1 216 0
 496 000a 4FF47A70 		mov	r0, #1000
 497 000e FFF7FEFF 		bl	CyDelay
 498              	.LVL52:
 217:main.c        ****         
 218:main.c        ****         return 0;
 219:main.c        ****     }    
 499              		.loc 1 219 0
 500 0012 0020     		movs	r0, #0
 501 0014 08BD     		pop	{r3, pc}
 502              		.cfi_endproc
 503              	.LFE74:
 504              		.size	Grip_Close, .-Grip_Close
 505 0016 00BF     		.section	.text.Lift_Up,"ax",%progbits
 506              		.align	2
 507              		.global	Lift_Up
 508              		.thumb
 509              		.thumb_func
 510              		.type	Lift_Up, %function
 511              	Lift_Up:
 512              	.LFB75:
 220:main.c        ****     
 221:main.c        ****     
 222:main.c        **** int Lift_Up(int pucks)
 223:main.c        **** {
 513              		.loc 1 223 0
 514              		.cfi_startproc
 515              		@ args = 0, pretend = 0, frame = 0
 516              		@ frame_needed = 0, uses_anonymous_args = 0
 517              	.LVL53:
 518 0000 10B5     		push	{r4, lr}
ARM GAS  C:\Users\DAANIS~1\AppData\Local\Temp\cc8hOy7c.s 			page 14


 519              		.cfi_def_cfa_offset 8
 520              		.cfi_offset 4, -8
 521              		.cfi_offset 14, -4
 522              	.LVL54:
 224:main.c        ****     int i = 0;
 225:main.c        ****     
 226:main.c        ****     switch(pucks)
 523              		.loc 1 226 0
 524 0002 0138     		subs	r0, r0, #1
 525              	.LVL55:
 526 0004 0428     		cmp	r0, #4
 527 0006 4ED8     		bhi	.L38
 528 0008 DFE800F0 		tbb	[pc, r0]
 529              	.L40:
 530 000c 09       		.byte	(.L50-.L40)/2
 531 000d 18       		.byte	(.L51-.L40)/2
 532 000e 27       		.byte	(.L52-.L40)/2
 533 000f 36       		.byte	(.L53-.L40)/2
 534 0010 45       		.byte	(.L54-.L40)/2
 535              	.LVL56:
 536 0011 00       		.p2align 1
 537              	.L45:
 227:main.c        ****     {
 228:main.c        ****          case 1:
 229:main.c        ****         {
 230:main.c        ****              for(i=0; i<1000000; i++)
 231:main.c        ****                 {
 232:main.c        ****                  PWM_Lift_WriteCompare(1650);
 538              		.loc 1 232 0 discriminator 3
 539 0012 40F27260 		movw	r0, #1650
 540 0016 FFF7FEFF 		bl	PWM_Lift_WriteCompare
 541              	.LVL57:
 230:main.c        ****                 {
 542              		.loc 1 230 0 discriminator 3
 543 001a 0134     		adds	r4, r4, #1
 544              	.LVL58:
 545 001c 00E0     		b	.L39
 546              	.LVL59:
 547              	.L50:
 226:main.c        ****     {
 548              		.loc 1 226 0
 549 001e 0024     		movs	r4, #0
 550              	.LVL60:
 551              	.L39:
 230:main.c        ****                 {
 552              		.loc 1 230 0 discriminator 1
 553 0020 224B     		ldr	r3, .L56
 554 0022 9C42     		cmp	r4, r3
 555 0024 F5DD     		ble	.L45
 233:main.c        ****                 }
 234:main.c        ****     
 235:main.c        ****             PWM_Lift_WriteCompare(1475);
 556              		.loc 1 235 0
 557 0026 40F2C350 		movw	r0, #1475
 558 002a FFF7FEFF 		bl	PWM_Lift_WriteCompare
 559              	.LVL61:
 236:main.c        ****             break;
ARM GAS  C:\Users\DAANIS~1\AppData\Local\Temp\cc8hOy7c.s 			page 15


 560              		.loc 1 236 0
 561 002e 3AE0     		b	.L38
 562              	.L46:
 237:main.c        ****         }
 238:main.c        ****          case 2:
 239:main.c        ****         {
 240:main.c        ****              for(i=0; i<1800000; i++)
 241:main.c        ****                 {
 242:main.c        ****                  PWM_Lift_WriteCompare(1600);
 563              		.loc 1 242 0 discriminator 3
 564 0030 4FF4C860 		mov	r0, #1600
 565 0034 FFF7FEFF 		bl	PWM_Lift_WriteCompare
 566              	.LVL62:
 240:main.c        ****                 {
 567              		.loc 1 240 0 discriminator 3
 568 0038 0134     		adds	r4, r4, #1
 569              	.LVL63:
 570 003a 00E0     		b	.L41
 571              	.LVL64:
 572              	.L51:
 226:main.c        ****     {
 573              		.loc 1 226 0
 574 003c 0024     		movs	r4, #0
 575              	.LVL65:
 576              	.L41:
 240:main.c        ****                 {
 577              		.loc 1 240 0 discriminator 1
 578 003e 1C4B     		ldr	r3, .L56+4
 579 0040 9C42     		cmp	r4, r3
 580 0042 F5DD     		ble	.L46
 243:main.c        ****                 }
 244:main.c        ****     
 245:main.c        ****             PWM_Lift_WriteCompare(1475);
 581              		.loc 1 245 0
 582 0044 40F2C350 		movw	r0, #1475
 583 0048 FFF7FEFF 		bl	PWM_Lift_WriteCompare
 584              	.LVL66:
 246:main.c        ****             break;
 585              		.loc 1 246 0
 586 004c 2BE0     		b	.L38
 587              	.L47:
 247:main.c        ****         }
 248:main.c        ****          case 3:
 249:main.c        ****         {
 250:main.c        ****              for(i=0; i<2300000; i++)
 251:main.c        ****                 {
 252:main.c        ****                  PWM_Lift_WriteCompare(1600);
 588              		.loc 1 252 0 discriminator 3
 589 004e 4FF4C860 		mov	r0, #1600
 590 0052 FFF7FEFF 		bl	PWM_Lift_WriteCompare
 591              	.LVL67:
 250:main.c        ****                 {
 592              		.loc 1 250 0 discriminator 3
 593 0056 0134     		adds	r4, r4, #1
 594              	.LVL68:
 595 0058 00E0     		b	.L42
 596              	.LVL69:
ARM GAS  C:\Users\DAANIS~1\AppData\Local\Temp\cc8hOy7c.s 			page 16


 597              	.L52:
 226:main.c        ****     {
 598              		.loc 1 226 0
 599 005a 0024     		movs	r4, #0
 600              	.LVL70:
 601              	.L42:
 250:main.c        ****                 {
 602              		.loc 1 250 0 discriminator 1
 603 005c 154B     		ldr	r3, .L56+8
 604 005e 9C42     		cmp	r4, r3
 605 0060 F5DD     		ble	.L47
 253:main.c        ****                 }
 254:main.c        ****     
 255:main.c        ****             PWM_Lift_WriteCompare(1475);
 606              		.loc 1 255 0
 607 0062 40F2C350 		movw	r0, #1475
 608 0066 FFF7FEFF 		bl	PWM_Lift_WriteCompare
 609              	.LVL71:
 256:main.c        ****             break;
 610              		.loc 1 256 0
 611 006a 1CE0     		b	.L38
 612              	.L48:
 257:main.c        ****         }
 258:main.c        ****          case 4:
 259:main.c        ****         {
 260:main.c        ****              for(i=0; i<2900000; i++)
 261:main.c        ****                 {
 262:main.c        ****                  PWM_Lift_WriteCompare(1600);
 613              		.loc 1 262 0 discriminator 3
 614 006c 4FF4C860 		mov	r0, #1600
 615 0070 FFF7FEFF 		bl	PWM_Lift_WriteCompare
 616              	.LVL72:
 260:main.c        ****                 {
 617              		.loc 1 260 0 discriminator 3
 618 0074 0134     		adds	r4, r4, #1
 619              	.LVL73:
 620 0076 00E0     		b	.L43
 621              	.LVL74:
 622              	.L53:
 226:main.c        ****     {
 623              		.loc 1 226 0
 624 0078 0024     		movs	r4, #0
 625              	.LVL75:
 626              	.L43:
 260:main.c        ****                 {
 627              		.loc 1 260 0 discriminator 1
 628 007a 0F4B     		ldr	r3, .L56+12
 629 007c 9C42     		cmp	r4, r3
 630 007e F5DD     		ble	.L48
 263:main.c        ****                 }
 264:main.c        ****     
 265:main.c        ****             PWM_Lift_WriteCompare(1475);
 631              		.loc 1 265 0
 632 0080 40F2C350 		movw	r0, #1475
 633 0084 FFF7FEFF 		bl	PWM_Lift_WriteCompare
 634              	.LVL76:
 266:main.c        ****             break;
ARM GAS  C:\Users\DAANIS~1\AppData\Local\Temp\cc8hOy7c.s 			page 17


 635              		.loc 1 266 0
 636 0088 0DE0     		b	.L38
 637              	.L49:
 267:main.c        ****         }
 268:main.c        ****         case 5:
 269:main.c        ****         {
 270:main.c        ****              for(i=0; i<3500000; i++)
 271:main.c        ****                 {
 272:main.c        ****                  PWM_Lift_WriteCompare(1600);
 638              		.loc 1 272 0 discriminator 3
 639 008a 4FF4C860 		mov	r0, #1600
 640 008e FFF7FEFF 		bl	PWM_Lift_WriteCompare
 641              	.LVL77:
 270:main.c        ****                 {
 642              		.loc 1 270 0 discriminator 3
 643 0092 0134     		adds	r4, r4, #1
 644              	.LVL78:
 645 0094 00E0     		b	.L44
 646              	.LVL79:
 647              	.L54:
 226:main.c        ****     {
 648              		.loc 1 226 0
 649 0096 0024     		movs	r4, #0
 650              	.LVL80:
 651              	.L44:
 270:main.c        ****                 {
 652              		.loc 1 270 0 discriminator 1
 653 0098 084B     		ldr	r3, .L56+16
 654 009a 9C42     		cmp	r4, r3
 655 009c F5DD     		ble	.L49
 273:main.c        ****                 }
 274:main.c        ****     
 275:main.c        ****             PWM_Lift_WriteCompare(1475);
 656              		.loc 1 275 0
 657 009e 40F2C350 		movw	r0, #1475
 658 00a2 FFF7FEFF 		bl	PWM_Lift_WriteCompare
 659              	.LVL81:
 660              	.L38:
 276:main.c        ****             break;
 277:main.c        ****         }
 278:main.c        ****     }
 279:main.c        ****     
 280:main.c        ****    
 281:main.c        ****     return 0;
 282:main.c        **** }
 661              		.loc 1 282 0
 662 00a6 0020     		movs	r0, #0
 663 00a8 10BD     		pop	{r4, pc}
 664              	.L57:
 665 00aa 00BF     		.align	2
 666              	.L56:
 667 00ac 3F420F00 		.word	999999
 668 00b0 3F771B00 		.word	1799999
 669 00b4 5F182300 		.word	2299999
 670 00b8 1F402C00 		.word	2899999
 671 00bc DF673500 		.word	3499999
 672              		.cfi_endproc
ARM GAS  C:\Users\DAANIS~1\AppData\Local\Temp\cc8hOy7c.s 			page 18


 673              	.LFE75:
 674              		.size	Lift_Up, .-Lift_Up
 675              		.section	.text.Lift_Down,"ax",%progbits
 676              		.align	2
 677              		.global	Lift_Down
 678              		.thumb
 679              		.thumb_func
 680              		.type	Lift_Down, %function
 681              	Lift_Down:
 682              	.LFB76:
 283:main.c        **** 
 284:main.c        **** int Lift_Down()
 285:main.c        **** {
 683              		.loc 1 285 0
 684              		.cfi_startproc
 685              		@ args = 0, pretend = 0, frame = 0
 686              		@ frame_needed = 0, uses_anonymous_args = 0
 687 0000 10B5     		push	{r4, lr}
 688              		.cfi_def_cfa_offset 8
 689              		.cfi_offset 4, -8
 690              		.cfi_offset 14, -4
 691              	.LVL82:
 286:main.c        ****     int i = 0;
 287:main.c        ****     for(i=0; i<1200000; i++)
 692              		.loc 1 287 0
 693 0002 0024     		movs	r4, #0
 694 0004 04E0     		b	.L59
 695              	.LVL83:
 696              	.L60:
 288:main.c        ****     {
 289:main.c        ****         PWM_Lift_WriteCompare(1350);
 697              		.loc 1 289 0 discriminator 3
 698 0006 40F24650 		movw	r0, #1350
 699 000a FFF7FEFF 		bl	PWM_Lift_WriteCompare
 700              	.LVL84:
 287:main.c        ****     {
 701              		.loc 1 287 0 discriminator 3
 702 000e 0134     		adds	r4, r4, #1
 703              	.LVL85:
 704              	.L59:
 287:main.c        ****     {
 705              		.loc 1 287 0 is_stmt 0 discriminator 1
 706 0010 044B     		ldr	r3, .L62
 707 0012 9C42     		cmp	r4, r3
 708 0014 F7DD     		ble	.L60
 290:main.c        ****     }
 291:main.c        ****     
 292:main.c        ****     PWM_Lift_WriteCompare(1475);
 709              		.loc 1 292 0 is_stmt 1
 710 0016 40F2C350 		movw	r0, #1475
 711 001a FFF7FEFF 		bl	PWM_Lift_WriteCompare
 712              	.LVL86:
 293:main.c        ****     return 0;
 294:main.c        **** }
 713              		.loc 1 294 0
 714 001e 0020     		movs	r0, #0
 715 0020 10BD     		pop	{r4, pc}
ARM GAS  C:\Users\DAANIS~1\AppData\Local\Temp\cc8hOy7c.s 			page 19


 716              	.LVL87:
 717              	.L63:
 718 0022 00BF     		.align	2
 719              	.L62:
 720 0024 7F4F1200 		.word	1199999
 721              		.cfi_endproc
 722              	.LFE76:
 723              		.size	Lift_Down, .-Lift_Down
 724              		.section	.text.Read_Order,"ax",%progbits
 725              		.align	2
 726              		.global	Read_Order
 727              		.thumb
 728              		.thumb_func
 729              		.type	Read_Order, %function
 730              	Read_Order:
 731              	.LFB77:
 295:main.c        **** 
 296:main.c        **** int * Read_Order() {
 732              		.loc 1 296 0
 733              		.cfi_startproc
 734              		@ args = 0, pretend = 0, frame = 0
 735              		@ frame_needed = 0, uses_anonymous_args = 0
 736 0000 10B5     		push	{r4, lr}
 737              		.cfi_def_cfa_offset 8
 738              		.cfi_offset 4, -8
 739              		.cfi_offset 14, -4
 740              	.LVL88:
 297:main.c        ****     
 298:main.c        ****     int pucks_read = 0;
 299:main.c        ****     int pattern[5];
 300:main.c        ****     
 301:main.c        ****     
 302:main.c        ****     MoveStraight(40, 3.2, 1);
 741              		.loc 1 302 0
 742 0002 0122     		movs	r2, #1
 743 0004 0849     		ldr	r1, .L68
 744 0006 0948     		ldr	r0, .L68+4
 745 0008 FFF7FEFF 		bl	MoveStraight
 746              	.LVL89:
 298:main.c        ****     int pattern[5];
 747              		.loc 1 298 0
 748 000c 0024     		movs	r4, #0
 303:main.c        ****     while (pucks_read < 5) {
 749              		.loc 1 303 0
 750 000e 07E0     		b	.L65
 751              	.LVL90:
 752              	.L66:
 304:main.c        ****         pattern[4-i] = LED();
 753              		.loc 1 304 0
 754 0010 FFF7FEFF 		bl	LED
 755              	.LVL91:
 305:main.c        ****         pucks_read++;
 756              		.loc 1 305 0
 757 0014 0134     		adds	r4, r4, #1
 758              	.LVL92:
 306:main.c        ****         MoveStraight(40, 3.2, 0);
 759              		.loc 1 306 0
ARM GAS  C:\Users\DAANIS~1\AppData\Local\Temp\cc8hOy7c.s 			page 20


 760 0016 0022     		movs	r2, #0
 761 0018 0349     		ldr	r1, .L68
 762 001a 0448     		ldr	r0, .L68+4
 763 001c FFF7FEFF 		bl	MoveStraight
 764              	.LVL93:
 765              	.L65:
 303:main.c        ****         pattern[4-i] = LED();
 766              		.loc 1 303 0
 767 0020 042C     		cmp	r4, #4
 768 0022 F5DD     		ble	.L66
 307:main.c        ****     }
 308:main.c        ****     return pattern;
 309:main.c        **** }
 769              		.loc 1 309 0
 770 0024 0020     		movs	r0, #0
 771 0026 10BD     		pop	{r4, pc}
 772              	.LVL94:
 773              	.L69:
 774              		.align	2
 775              	.L68:
 776 0028 CDCC4C40 		.word	1078774989
 777 002c 00002042 		.word	1109393408
 778              		.cfi_endproc
 779              	.LFE77:
 780              		.size	Read_Order, .-Read_Order
 781              		.section	.text.Move_to_Pucks,"ax",%progbits
 782              		.align	2
 783              		.global	Move_to_Pucks
 784              		.thumb
 785              		.thumb_func
 786              		.type	Move_to_Pucks, %function
 787              	Move_to_Pucks:
 788              	.LFB78:
 310:main.c        **** 
 311:main.c        **** int Move_to_Pucks(int obstacle_location) {
 789              		.loc 1 311 0
 790              		.cfi_startproc
 791              		@ args = 0, pretend = 0, frame = 0
 792              		@ frame_needed = 0, uses_anonymous_args = 0
 793              	.LVL95:
 312:main.c        ****     
 313:main.c        ****     if (obstacle_location) {
 794              		.loc 1 313 0
 795 0000 B8B1     		cbz	r0, .L73
 311:main.c        ****     
 796              		.loc 1 311 0
 797 0002 10B5     		push	{r4, lr}
 798              		.cfi_def_cfa_offset 8
 799              		.cfi_offset 4, -8
 800              		.cfi_offset 14, -4
 314:main.c        ****         Turn(50, 180, 0);
 801              		.loc 1 314 0
 802 0004 0C4C     		ldr	r4, .L74
 803 0006 0022     		movs	r2, #0
 804 0008 0C49     		ldr	r1, .L74+4
 805 000a 2046     		mov	r0, r4
 806              	.LVL96:
ARM GAS  C:\Users\DAANIS~1\AppData\Local\Temp\cc8hOy7c.s 			page 21


 807 000c FFF7FEFF 		bl	Turn
 808              	.LVL97:
 315:main.c        ****         MoveStraight(50, 50, 0); // Until back wall is reached?
 809              		.loc 1 315 0
 810 0010 0022     		movs	r2, #0
 811 0012 2146     		mov	r1, r4
 812 0014 2046     		mov	r0, r4
 813 0016 FFF7FEFF 		bl	MoveStraight
 814              	.LVL98:
 316:main.c        ****         Turn(50, 90, 1); 
 815              		.loc 1 316 0
 816 001a 0122     		movs	r2, #1
 817 001c 0849     		ldr	r1, .L74+8
 818 001e 2046     		mov	r0, r4
 819 0020 FFF7FEFF 		bl	Turn
 820              	.LVL99:
 317:main.c        ****         // Parallel robot?
 318:main.c        ****         MoveStraight(50, 100, 0); // Move to pucks
 821              		.loc 1 318 0
 822 0024 0022     		movs	r2, #0
 823 0026 0749     		ldr	r1, .L74+12
 824 0028 2046     		mov	r0, r4
 825 002a FFF7FEFF 		bl	MoveStraight
 826              	.LVL100:
 319:main.c        ****     }
 320:main.c        ****     
 321:main.c        ****     return 0;
 322:main.c        **** }
 827              		.loc 1 322 0
 828 002e 0020     		movs	r0, #0
 829 0030 10BD     		pop	{r4, pc}
 830              	.LVL101:
 831              	.L73:
 832              		.cfi_def_cfa_offset 0
 833              		.cfi_restore 4
 834              		.cfi_restore 14
 835 0032 0020     		movs	r0, #0
 836              	.LVL102:
 837 0034 7047     		bx	lr
 838              	.L75:
 839 0036 00BF     		.align	2
 840              	.L74:
 841 0038 00004842 		.word	1112014848
 842 003c 00003443 		.word	1127481344
 843 0040 0000B442 		.word	1119092736
 844 0044 0000C842 		.word	1120403456
 845              		.cfi_endproc
 846              	.LFE78:
 847              		.size	Move_to_Pucks, .-Move_to_Pucks
 848              		.section	.text.Line_Up_Puck,"ax",%progbits
 849              		.align	2
 850              		.global	Line_Up_Puck
 851              		.thumb
 852              		.thumb_func
 853              		.type	Line_Up_Puck, %function
 854              	Line_Up_Puck:
 855              	.LFB79:
ARM GAS  C:\Users\DAANIS~1\AppData\Local\Temp\cc8hOy7c.s 			page 22


 323:main.c        **** 
 324:main.c        **** int Line_Up_Puck(int colour) {
 856              		.loc 1 324 0
 857              		.cfi_startproc
 858              		@ args = 0, pretend = 0, frame = 0
 859              		@ frame_needed = 0, uses_anonymous_args = 0
 860              	.LVL103:
 861 0000 10B5     		push	{r4, lr}
 862              		.cfi_def_cfa_offset 8
 863              		.cfi_offset 4, -8
 864              		.cfi_offset 14, -4
 865 0002 0446     		mov	r4, r0
 866              	.LVL104:
 867              	.L77:
 325:main.c        ****     // To be done once robot is in position
 326:main.c        ****     int correct_puck = 0;
 327:main.c        ****     int puck_colour = 0;
 328:main.c        ****     
 329:main.c        ****     while (1) {
 330:main.c        ****         puck_colour = LED();
 868              		.loc 1 330 0
 869 0004 FFF7FEFF 		bl	LED
 870              	.LVL105:
 331:main.c        ****         if (puck_colour == colour) {
 871              		.loc 1 331 0
 872 0008 A042     		cmp	r0, r4
 873 000a FBD1     		bne	.L77
 332:main.c        ****             return 1;
 333:main.c        ****         }
 334:main.c        ****         else {
 335:main.c        ****             // Turn a few degrees in either direction
 336:main.c        ****             // Move straight
 337:main.c        ****             continue;
 338:main.c        ****         }
 339:main.c        ****         
 340:main.c        ****     }
 341:main.c        **** }
 874              		.loc 1 341 0
 875 000c 0120     		movs	r0, #1
 876              	.LVL106:
 877 000e 10BD     		pop	{r4, pc}
 878              		.cfi_endproc
 879              	.LFE79:
 880              		.size	Line_Up_Puck, .-Line_Up_Puck
 881              		.section	.text.main,"ax",%progbits
 882              		.align	2
 883              		.global	main
 884              		.thumb
 885              		.thumb_func
 886              		.type	main, %function
 887              	main:
 888              	.LFB69:
  93:main.c        ****     CyGlobalIntEnable; /* Enable global interrupts. */
 889              		.loc 1 93 0
 890              		.cfi_startproc
 891              		@ args = 0, pretend = 0, frame = 64
 892              		@ frame_needed = 0, uses_anonymous_args = 0
ARM GAS  C:\Users\DAANIS~1\AppData\Local\Temp\cc8hOy7c.s 			page 23


 893 0000 30B5     		push	{r4, r5, lr}
 894              		.cfi_def_cfa_offset 12
 895              		.cfi_offset 4, -12
 896              		.cfi_offset 5, -8
 897              		.cfi_offset 14, -4
 898 0002 91B0     		sub	sp, sp, #68
 899              		.cfi_def_cfa_offset 80
  94:main.c        ****     
 900              		.loc 1 94 0
 901              		.syntax unified
 902              	@ 94 "main.c" 1
 903 0004 62B6     		CPSIE   i
 904              	@ 0 "" 2
  99:main.c        **** //        QuadDec_Left_Start();
 905              		.loc 1 99 0
 906              		.thumb
 907              		.syntax unified
 908 0006 FFF7FEFF 		bl	Clock_1_Start
 909              	.LVL107:
 102:main.c        **** //        IDAC8_Start();
 910              		.loc 1 102 0
 911 000a FFF7FEFF 		bl	UART_Start
 912              	.LVL108:
 123:main.c        ****     UART_PutString(lul);
 913              		.loc 1 123 0
 914 000e 06AC     		add	r4, sp, #24
 915 0010 224D     		ldr	r5, .L85
 916 0012 0FCD     		ldmia	r5!, {r0, r1, r2, r3}
 917 0014 0FC4     		stmia	r4!, {r0, r1, r2, r3}
 918 0016 0FCD     		ldmia	r5!, {r0, r1, r2, r3}
 919 0018 0FC4     		stmia	r4!, {r0, r1, r2, r3}
 920 001a 95E80300 		ldmia	r5, {r0, r1}
 921 001e 44F8040B 		str	r0, [r4], #4
 922 0022 24F8021B 		strh	r1, [r4], #2	@ movhi
 923 0026 090C     		lsrs	r1, r1, #16
 924 0028 2170     		strb	r1, [r4]
 124:main.c        ****     
 925              		.loc 1 124 0
 926 002a 06A8     		add	r0, sp, #24
 927 002c FFF7FEFF 		bl	UART_PutString
 928              	.LVL109:
 126:main.c        ****     char skrrt[30];
 929              		.loc 1 126 0
 930 0030 01AC     		add	r4, sp, #4
 931 0032 1B4D     		ldr	r5, .L85+4
 932 0034 0FCD     		ldmia	r5!, {r0, r1, r2, r3}
 933 0036 0FC4     		stmia	r4!, {r0, r1, r2, r3}
 934 0038 2B68     		ldr	r3, [r5]
 935 003a 2360     		str	r3, [r4]
 130:main.c        ****     int i;
 936              		.loc 1 130 0
 937 003c 01A8     		add	r0, sp, #4
 938 003e FFF7FEFF 		bl	pattern
 939              	.LVL110:
 940 0042 0546     		mov	r5, r0
 941              	.LVL111:
 132:main.c        ****         given_pattern[i] = *(das_it + i);
ARM GAS  C:\Users\DAANIS~1\AppData\Local\Temp\cc8hOy7c.s 			page 24


 942              		.loc 1 132 0
 943 0044 0024     		movs	r4, #0
 944 0046 10E0     		b	.L80
 945              	.LVL112:
 946              	.L81:
 133:main.c        ****         sprintf(lul, "The ting go %d\n", given_pattern[i]);
 947              		.loc 1 133 0 discriminator 3
 948 0048 55F82420 		ldr	r2, [r5, r4, lsl #2]
 949 004c 154B     		ldr	r3, .L85+8
 950 004e 43F82420 		str	r2, [r3, r4, lsl #2]
 134:main.c        ****         UART_PutString(lul);
 951              		.loc 1 134 0 discriminator 3
 952 0052 1549     		ldr	r1, .L85+12
 953 0054 06A8     		add	r0, sp, #24
 954 0056 FFF7FEFF 		bl	sprintf
 955              	.LVL113:
 135:main.c        ****         CyDelay(1000);
 956              		.loc 1 135 0 discriminator 3
 957 005a 06A8     		add	r0, sp, #24
 958 005c FFF7FEFF 		bl	UART_PutString
 959              	.LVL114:
 136:main.c        ****     }
 960              		.loc 1 136 0 discriminator 3
 961 0060 4FF47A70 		mov	r0, #1000
 962 0064 FFF7FEFF 		bl	CyDelay
 963              	.LVL115:
 132:main.c        ****         given_pattern[i] = *(das_it + i);
 964              		.loc 1 132 0 discriminator 3
 965 0068 0134     		adds	r4, r4, #1
 966              	.LVL116:
 967              	.L80:
 132:main.c        ****         given_pattern[i] = *(das_it + i);
 968              		.loc 1 132 0 is_stmt 0 discriminator 1
 969 006a 042C     		cmp	r4, #4
 970 006c ECDD     		ble	.L81
 971 006e 0DE0     		b	.L82
 972              	.LVL117:
 973              	.L83:
 142:main.c        ****         Line_Up_Puck(given_pattern[pucks_stacked]);
 974              		.loc 1 142 0 is_stmt 1
 975 0070 0E4B     		ldr	r3, .L85+16
 976 0072 1868     		ldr	r0, [r3]
 977 0074 FFF7FEFF 		bl	Move_to_Pucks
 978              	.LVL118:
 143:main.c        ****         Pick_Up_Puck();
 979              		.loc 1 143 0
 980 0078 0D4C     		ldr	r4, .L85+20
 981 007a 6269     		ldr	r2, [r4, #20]
 982 007c 094B     		ldr	r3, .L85+8
 983 007e 53F82200 		ldr	r0, [r3, r2, lsl #2]
 984 0082 FFF7FEFF 		bl	Line_Up_Puck
 985              	.LVL119:
 147:main.c        ****         Backtrack(obstacle_location);
 986              		.loc 1 147 0
 987 0086 6369     		ldr	r3, [r4, #20]
 988 0088 0133     		adds	r3, r3, #1
 989 008a 6361     		str	r3, [r4, #20]
ARM GAS  C:\Users\DAANIS~1\AppData\Local\Temp\cc8hOy7c.s 			page 25


 990              	.L82:
 140:main.c        ****         // Initialise stepper
 991              		.loc 1 140 0
 992 008c 084B     		ldr	r3, .L85+20
 993 008e 5B69     		ldr	r3, [r3, #20]
 994 0090 042B     		cmp	r3, #4
 995 0092 EDDD     		ble	.L83
 151:main.c        **** 
 996              		.loc 1 151 0
 997 0094 0020     		movs	r0, #0
 998 0096 11B0     		add	sp, sp, #68
 999              		.cfi_def_cfa_offset 12
 1000              		@ sp needed
 1001 0098 30BD     		pop	{r4, r5, pc}
 1002              	.LVL120:
 1003              	.L86:
 1004 009a 00BF     		.align	2
 1005              	.L85:
 1006 009c 10000000 		.word	.LC1
 1007 00a0 00000000 		.word	.LANCHOR2
 1008 00a4 00000000 		.word	given_pattern
 1009 00a8 00000000 		.word	.LC2
 1010 00ac 00000000 		.word	obstacle_location
 1011 00b0 00000000 		.word	.LANCHOR0
 1012              		.cfi_endproc
 1013              	.LFE69:
 1014              		.size	main, .-main
 1015              		.section	.text.Pick_Up_Puck,"ax",%progbits
 1016              		.align	2
 1017              		.global	Pick_Up_Puck
 1018              		.thumb
 1019              		.thumb_func
 1020              		.type	Pick_Up_Puck, %function
 1021              	Pick_Up_Puck:
 1022              	.LFB80:
 342:main.c        **** 
 343:main.c        **** void Pick_Up_Puck() {
 1023              		.loc 1 343 0
 1024              		.cfi_startproc
 1025              		@ args = 0, pretend = 0, frame = 0
 1026              		@ frame_needed = 0, uses_anonymous_args = 0
 1027              		@ link register save eliminated.
 1028 0000 7047     		bx	lr
 1029              		.cfi_endproc
 1030              	.LFE80:
 1031              		.size	Pick_Up_Puck, .-Pick_Up_Puck
 1032 0002 00BF     		.section	.text.Backtrack,"ax",%progbits
 1033              		.align	2
 1034              		.global	Backtrack
 1035              		.thumb
 1036              		.thumb_func
 1037              		.type	Backtrack, %function
 1038              	Backtrack:
 1039              	.LFB81:
 344:main.c        ****     // TODO: Implement this. Have the ting close its gripper and then
 345:main.c        ****     // lift it up.
 346:main.c        **** }
ARM GAS  C:\Users\DAANIS~1\AppData\Local\Temp\cc8hOy7c.s 			page 26


 347:main.c        **** 
 348:main.c        **** void Backtrack(int obstacle_location) {
 1040              		.loc 1 348 0
 1041              		.cfi_startproc
 1042              		@ args = 0, pretend = 0, frame = 0
 1043              		@ frame_needed = 0, uses_anonymous_args = 0
 1044              		@ link register save eliminated.
 1045              	.LVL121:
 1046 0000 7047     		bx	lr
 1047              		.cfi_endproc
 1048              	.LFE81:
 1049              		.size	Backtrack, .-Backtrack
 1050 0002 00BF     		.section	.text.Stack,"ax",%progbits
 1051              		.align	2
 1052              		.global	Stack
 1053              		.thumb
 1054              		.thumb_func
 1055              		.type	Stack, %function
 1056              	Stack:
 1057              	.LFB82:
 349:main.c        ****     if (obstacle_location) {
 350:main.c        ****         // Code for obstacle in centre or right
 351:main.c        ****     }
 352:main.c        ****     else {
 353:main.c        ****         // Code for obstacle on left
 354:main.c        ****     }
 355:main.c        **** }
 356:main.c        **** 
 357:main.c        **** void Stack() {
 1058              		.loc 1 357 0
 1059              		.cfi_startproc
 1060              		@ args = 0, pretend = 0, frame = 0
 1061              		@ frame_needed = 0, uses_anonymous_args = 0
 1062              		@ link register save eliminated.
 1063 0000 7047     		bx	lr
 1064              		.cfi_endproc
 1065              	.LFE82:
 1066              		.size	Stack, .-Stack
 1067              		.global	RightCoord
 1068              		.global	LeftCoord
 1069              		.global	F2Coord
 1070              		.global	F1Coord
 1071              		.comm	location,8,4
 1072              		.comm	orientation,4,4
 1073              		.comm	ratio,4,4
 1074              		.global	RightCount
 1075              		.global	LeftCount
 1076              		.comm	pattern_pointer,4,4
 1077              		.comm	given_pattern,20,4
 1078              		.global	pucks_stacked
 1079              		.comm	obstacle_location,4,4
 1080              		.global	flag
 1081              		.global	i
 1082              		.comm	string,100,4
 1083 0002 00BF     		.section	.rodata
 1084              		.align	2
 1085              		.set	.LANCHOR2,. + 0
ARM GAS  C:\Users\DAANIS~1\AppData\Local\Temp\cc8hOy7c.s 			page 27


 1086              	.LC0:
 1087 0000 01000000 		.word	1
 1088 0004 02000000 		.word	2
 1089 0008 03000000 		.word	3
 1090 000c 05000000 		.word	5
 1091 0010 06000000 		.word	6
 1092              		.data
 1093              		.align	2
 1094              		.set	.LANCHOR1,. + 0
 1095              		.type	flag, %object
 1096              		.size	flag, 4
 1097              	flag:
 1098 0000 01000000 		.word	1
 1099              		.section	.rodata.str1.4,"aMS",%progbits,1
 1100              		.align	2
 1101              	.LC2:
 1102 0000 54686520 		.ascii	"The ting go %d\012\000"
 1102      74696E67 
 1102      20676F20 
 1102      25640A00 
 1103              	.LC1:
 1104 0010 3220706C 		.ascii	"2 plus 2 is 4 - 1 thats 3 quick maffs\012\000"
 1104      75732032 
 1104      20697320 
 1104      34202D20 
 1104      31207468 
 1105              		.bss
 1106              		.align	2
 1107              		.set	.LANCHOR0,. + 0
 1108              		.type	F1Coord, %object
 1109              		.size	F1Coord, 4
 1110              	F1Coord:
 1111 0000 00000000 		.space	4
 1112              		.type	F2Coord, %object
 1113              		.size	F2Coord, 4
 1114              	F2Coord:
 1115 0004 00000000 		.space	4
 1116              		.type	LeftCoord, %object
 1117              		.size	LeftCoord, 4
 1118              	LeftCoord:
 1119 0008 00000000 		.space	4
 1120              		.type	RightCoord, %object
 1121              		.size	RightCoord, 4
 1122              	RightCoord:
 1123 000c 00000000 		.space	4
 1124              		.type	i, %object
 1125              		.size	i, 4
 1126              	i:
 1127 0010 00000000 		.space	4
 1128              		.type	pucks_stacked, %object
 1129              		.size	pucks_stacked, 4
 1130              	pucks_stacked:
 1131 0014 00000000 		.space	4
 1132              		.type	RightCount, %object
 1133              		.size	RightCount, 4
 1134              	RightCount:
 1135 0018 00000000 		.space	4
ARM GAS  C:\Users\DAANIS~1\AppData\Local\Temp\cc8hOy7c.s 			page 28


 1136              		.type	LeftCount, %object
 1137              		.size	LeftCount, 4
 1138              	LeftCount:
 1139 001c 00000000 		.space	4
 1140              		.text
 1141              	.Letext0:
 1142              		.file 2 "c:\\program files (x86)\\cypress\\psoc creator\\4.1\\psoc creator\\import\\gnu\\arm\\5.4.
 1143              		.file 3 "c:\\program files (x86)\\cypress\\psoc creator\\4.1\\psoc creator\\import\\gnu\\arm\\5.4.
 1144              		.file 4 "Generated_Source\\PSoC5/cytypes.h"
 1145              		.file 5 "Generated_Source\\PSoC5/core_cm3.h"
 1146              		.file 6 "Generated_Source\\PSoC5/Timer_ULTRASONIC_F1.h"
 1147              		.file 7 "Generated_Source\\PSoC5/Timer_ULTRASONIC_F2.h"
 1148              		.file 8 "Generated_Source\\PSoC5/Timer_ULTRASONIC_L.h"
 1149              		.file 9 "Generated_Source\\PSoC5/Timer_ULTRASONIC_R.h"
 1150              		.file 10 "Generated_Source\\PSoC5/Flag.h"
 1151              		.file 11 "Generated_Source\\PSoC5/CyLib.h"
 1152              		.file 12 "Generated_Source\\PSoC5/LED.h"
 1153              		.file 13 "Generated_Source\\PSoC5/Reset.h"
 1154              		.file 14 "Generated_Source\\PSoC5/Buzzer.h"
 1155              		.file 15 "Generated_Source\\PSoC5/PWM_Grip.h"
 1156              		.file 16 "Generated_Source\\PSoC5/PWM_Lift.h"
 1157              		.file 17 "wheels.h"
 1158              		.file 18 "Generated_Source\\PSoC5/Clock_1.h"
 1159              		.file 19 "Generated_Source\\PSoC5/UART.h"
 1160              		.file 20 "c:\\program files (x86)\\cypress\\psoc creator\\4.1\\psoc creator\\import\\gnu\\arm\\5.4
 1161              		.file 21 "colour.h"