ARM GAS  C:\Users\daani\AppData\Local\Temp\ccyDs7qg.s 			page 1


   1              		.syntax unified
   2              		.cpu cortex-m3
   3              		.fpu softvfp
   4              		.eabi_attribute 20, 1
   5              		.eabi_attribute 21, 1
   6              		.eabi_attribute 23, 3
   7              		.eabi_attribute 24, 1
   8              		.eabi_attribute 25, 1
   9              		.eabi_attribute 26, 1
  10              		.eabi_attribute 30, 1
  11              		.eabi_attribute 34, 1
  12              		.eabi_attribute 18, 4
  13              		.thumb
  14              		.syntax unified
  15              		.file	"servos_stepper.c"
  16              		.text
  17              	.Ltext0:
  18              		.cfi_sections	.debug_frame
  19              		.section	.text.Grip_Open,"ax",%progbits
  20              		.align	2
  21              		.global	Grip_Open
  22              		.thumb
  23              		.thumb_func
  24              		.type	Grip_Open, %function
  25              	Grip_Open:
  26              	.LFB63:
  27              		.file 1 "servos_stepper.c"
   1:servos_stepper.c **** /* ========================================
   2:servos_stepper.c ****  *
   3:servos_stepper.c ****  * Copyright YOUR COMPANY, THE YEAR
   4:servos_stepper.c ****  * All Rights Reserved
   5:servos_stepper.c ****  * UNPUBLISHED, LICENSED SOFTWARE.
   6:servos_stepper.c ****  *
   7:servos_stepper.c ****  * CONFIDENTIAL AND PROPRIETARY INFORMATION
   8:servos_stepper.c ****  * WHICH IS THE PROPERTY OF your company.
   9:servos_stepper.c ****  *
  10:servos_stepper.c ****  * ========================================
  11:servos_stepper.c **** */
  12:servos_stepper.c **** 
  13:servos_stepper.c **** #include <project.h>
  14:servos_stepper.c **** 
  15:servos_stepper.c **** int Grip_Open()
  16:servos_stepper.c ****     {
  28              		.loc 1 16 0
  29              		.cfi_startproc
  30              		@ args = 0, pretend = 0, frame = 0
  31              		@ frame_needed = 0, uses_anonymous_args = 0
  32 0000 08B5     		push	{r3, lr}
  33              		.cfi_def_cfa_offset 8
  34              		.cfi_offset 3, -8
  35              		.cfi_offset 14, -4
  17:servos_stepper.c ****         PWM_Grip_WriteCompare(1050);
  36              		.loc 1 17 0
  37 0002 40F21A40 		movw	r0, #1050
  38 0006 FFF7FEFF 		bl	PWM_Grip_WriteCompare
  39              	.LVL0:
  18:servos_stepper.c ****         CyDelay(1000);
ARM GAS  C:\Users\daani\AppData\Local\Temp\ccyDs7qg.s 			page 2


  40              		.loc 1 18 0
  41 000a 4FF47A70 		mov	r0, #1000
  42 000e FFF7FEFF 		bl	CyDelay
  43              	.LVL1:
  19:servos_stepper.c ****         
  20:servos_stepper.c ****         return 0;
  21:servos_stepper.c ****     } 
  44              		.loc 1 21 0
  45 0012 0020     		movs	r0, #0
  46 0014 08BD     		pop	{r3, pc}
  47              		.cfi_endproc
  48              	.LFE63:
  49              		.size	Grip_Open, .-Grip_Open
  50 0016 00BF     		.section	.text.Grip_Close,"ax",%progbits
  51              		.align	2
  52              		.global	Grip_Close
  53              		.thumb
  54              		.thumb_func
  55              		.type	Grip_Close, %function
  56              	Grip_Close:
  57              	.LFB64:
  22:servos_stepper.c **** 
  23:servos_stepper.c **** int Grip_Close()
  24:servos_stepper.c ****     {
  58              		.loc 1 24 0
  59              		.cfi_startproc
  60              		@ args = 0, pretend = 0, frame = 0
  61              		@ frame_needed = 0, uses_anonymous_args = 0
  62 0000 08B5     		push	{r3, lr}
  63              		.cfi_def_cfa_offset 8
  64              		.cfi_offset 3, -8
  65              		.cfi_offset 14, -4
  25:servos_stepper.c ****         PWM_Grip_WriteCompare(1290);
  66              		.loc 1 25 0
  67 0002 40F20A50 		movw	r0, #1290
  68 0006 FFF7FEFF 		bl	PWM_Grip_WriteCompare
  69              	.LVL2:
  26:servos_stepper.c ****         CyDelay(1000);
  70              		.loc 1 26 0
  71 000a 4FF47A70 		mov	r0, #1000
  72 000e FFF7FEFF 		bl	CyDelay
  73              	.LVL3:
  27:servos_stepper.c ****         
  28:servos_stepper.c ****         return 0;
  29:servos_stepper.c ****     }    
  74              		.loc 1 29 0
  75 0012 0020     		movs	r0, #0
  76 0014 08BD     		pop	{r3, pc}
  77              		.cfi_endproc
  78              	.LFE64:
  79              		.size	Grip_Close, .-Grip_Close
  80 0016 00BF     		.section	.text.Lift_Up,"ax",%progbits
  81              		.align	2
  82              		.global	Lift_Up
  83              		.thumb
  84              		.thumb_func
  85              		.type	Lift_Up, %function
ARM GAS  C:\Users\daani\AppData\Local\Temp\ccyDs7qg.s 			page 3


  86              	Lift_Up:
  87              	.LFB65:
  30:servos_stepper.c ****     
  31:servos_stepper.c ****     
  32:servos_stepper.c **** int Lift_Up(int pucks)
  33:servos_stepper.c **** {
  88              		.loc 1 33 0
  89              		.cfi_startproc
  90              		@ args = 0, pretend = 0, frame = 0
  91              		@ frame_needed = 0, uses_anonymous_args = 0
  92              	.LVL4:
  93 0000 10B5     		push	{r4, lr}
  94              		.cfi_def_cfa_offset 8
  95              		.cfi_offset 4, -8
  96              		.cfi_offset 14, -4
  97              	.LVL5:
  34:servos_stepper.c ****     int i = 0;
  35:servos_stepper.c ****     
  36:servos_stepper.c ****     switch(pucks)
  98              		.loc 1 36 0
  99 0002 0138     		subs	r0, r0, #1
 100              	.LVL6:
 101 0004 0428     		cmp	r0, #4
 102 0006 4ED8     		bhi	.L6
 103 0008 DFE800F0 		tbb	[pc, r0]
 104              	.L8:
 105 000c 09       		.byte	(.L18-.L8)/2
 106 000d 18       		.byte	(.L19-.L8)/2
 107 000e 27       		.byte	(.L20-.L8)/2
 108 000f 36       		.byte	(.L21-.L8)/2
 109 0010 45       		.byte	(.L22-.L8)/2
 110              	.LVL7:
 111 0011 00       		.p2align 1
 112              	.L13:
  37:servos_stepper.c ****     {
  38:servos_stepper.c ****          case 1:
  39:servos_stepper.c ****         {
  40:servos_stepper.c ****              for(i=0; i<1000000; i++)
  41:servos_stepper.c ****                 {
  42:servos_stepper.c ****                  PWM_Lift_WriteCompare(1650);
 113              		.loc 1 42 0 discriminator 3
 114 0012 40F27260 		movw	r0, #1650
 115 0016 FFF7FEFF 		bl	PWM_Lift_WriteCompare
 116              	.LVL8:
  40:servos_stepper.c ****                 {
 117              		.loc 1 40 0 discriminator 3
 118 001a 0134     		adds	r4, r4, #1
 119              	.LVL9:
 120 001c 00E0     		b	.L7
 121              	.LVL10:
 122              	.L18:
  36:servos_stepper.c ****     {
 123              		.loc 1 36 0
 124 001e 0024     		movs	r4, #0
 125              	.LVL11:
 126              	.L7:
  40:servos_stepper.c ****                 {
ARM GAS  C:\Users\daani\AppData\Local\Temp\ccyDs7qg.s 			page 4


 127              		.loc 1 40 0 discriminator 1
 128 0020 224B     		ldr	r3, .L24
 129 0022 9C42     		cmp	r4, r3
 130 0024 F5DD     		ble	.L13
  43:servos_stepper.c ****                 }
  44:servos_stepper.c ****     
  45:servos_stepper.c ****             PWM_Lift_WriteCompare(1475);
 131              		.loc 1 45 0
 132 0026 40F2C350 		movw	r0, #1475
 133 002a FFF7FEFF 		bl	PWM_Lift_WriteCompare
 134              	.LVL12:
  46:servos_stepper.c ****             break;
 135              		.loc 1 46 0
 136 002e 3AE0     		b	.L6
 137              	.L14:
  47:servos_stepper.c ****         }
  48:servos_stepper.c ****          case 2:
  49:servos_stepper.c ****         {
  50:servos_stepper.c ****              for(i=0; i<1800000; i++)
  51:servos_stepper.c ****                 {
  52:servos_stepper.c ****                  PWM_Lift_WriteCompare(1600);
 138              		.loc 1 52 0 discriminator 3
 139 0030 4FF4C860 		mov	r0, #1600
 140 0034 FFF7FEFF 		bl	PWM_Lift_WriteCompare
 141              	.LVL13:
  50:servos_stepper.c ****                 {
 142              		.loc 1 50 0 discriminator 3
 143 0038 0134     		adds	r4, r4, #1
 144              	.LVL14:
 145 003a 00E0     		b	.L9
 146              	.LVL15:
 147              	.L19:
  36:servos_stepper.c ****     {
 148              		.loc 1 36 0
 149 003c 0024     		movs	r4, #0
 150              	.LVL16:
 151              	.L9:
  50:servos_stepper.c ****                 {
 152              		.loc 1 50 0 discriminator 1
 153 003e 1C4B     		ldr	r3, .L24+4
 154 0040 9C42     		cmp	r4, r3
 155 0042 F5DD     		ble	.L14
  53:servos_stepper.c ****                 }
  54:servos_stepper.c ****     
  55:servos_stepper.c ****             PWM_Lift_WriteCompare(1475);
 156              		.loc 1 55 0
 157 0044 40F2C350 		movw	r0, #1475
 158 0048 FFF7FEFF 		bl	PWM_Lift_WriteCompare
 159              	.LVL17:
  56:servos_stepper.c ****             break;
 160              		.loc 1 56 0
 161 004c 2BE0     		b	.L6
 162              	.L15:
  57:servos_stepper.c ****         }
  58:servos_stepper.c ****          case 3:
  59:servos_stepper.c ****         {
  60:servos_stepper.c ****              for(i=0; i<2300000; i++)
ARM GAS  C:\Users\daani\AppData\Local\Temp\ccyDs7qg.s 			page 5


  61:servos_stepper.c ****                 {
  62:servos_stepper.c ****                  PWM_Lift_WriteCompare(1600);
 163              		.loc 1 62 0 discriminator 3
 164 004e 4FF4C860 		mov	r0, #1600
 165 0052 FFF7FEFF 		bl	PWM_Lift_WriteCompare
 166              	.LVL18:
  60:servos_stepper.c ****                 {
 167              		.loc 1 60 0 discriminator 3
 168 0056 0134     		adds	r4, r4, #1
 169              	.LVL19:
 170 0058 00E0     		b	.L10
 171              	.LVL20:
 172              	.L20:
  36:servos_stepper.c ****     {
 173              		.loc 1 36 0
 174 005a 0024     		movs	r4, #0
 175              	.LVL21:
 176              	.L10:
  60:servos_stepper.c ****                 {
 177              		.loc 1 60 0 discriminator 1
 178 005c 154B     		ldr	r3, .L24+8
 179 005e 9C42     		cmp	r4, r3
 180 0060 F5DD     		ble	.L15
  63:servos_stepper.c ****                 }
  64:servos_stepper.c ****     
  65:servos_stepper.c ****             PWM_Lift_WriteCompare(1475);
 181              		.loc 1 65 0
 182 0062 40F2C350 		movw	r0, #1475
 183 0066 FFF7FEFF 		bl	PWM_Lift_WriteCompare
 184              	.LVL22:
  66:servos_stepper.c ****             break;
 185              		.loc 1 66 0
 186 006a 1CE0     		b	.L6
 187              	.L16:
  67:servos_stepper.c ****         }
  68:servos_stepper.c ****          case 4:
  69:servos_stepper.c ****         {
  70:servos_stepper.c ****              for(i=0; i<2900000; i++)
  71:servos_stepper.c ****                 {
  72:servos_stepper.c ****                  PWM_Lift_WriteCompare(1600);
 188              		.loc 1 72 0 discriminator 3
 189 006c 4FF4C860 		mov	r0, #1600
 190 0070 FFF7FEFF 		bl	PWM_Lift_WriteCompare
 191              	.LVL23:
  70:servos_stepper.c ****                 {
 192              		.loc 1 70 0 discriminator 3
 193 0074 0134     		adds	r4, r4, #1
 194              	.LVL24:
 195 0076 00E0     		b	.L11
 196              	.LVL25:
 197              	.L21:
  36:servos_stepper.c ****     {
 198              		.loc 1 36 0
 199 0078 0024     		movs	r4, #0
 200              	.LVL26:
 201              	.L11:
  70:servos_stepper.c ****                 {
ARM GAS  C:\Users\daani\AppData\Local\Temp\ccyDs7qg.s 			page 6


 202              		.loc 1 70 0 discriminator 1
 203 007a 0F4B     		ldr	r3, .L24+12
 204 007c 9C42     		cmp	r4, r3
 205 007e F5DD     		ble	.L16
  73:servos_stepper.c ****                 }
  74:servos_stepper.c ****     
  75:servos_stepper.c ****             PWM_Lift_WriteCompare(1475);
 206              		.loc 1 75 0
 207 0080 40F2C350 		movw	r0, #1475
 208 0084 FFF7FEFF 		bl	PWM_Lift_WriteCompare
 209              	.LVL27:
  76:servos_stepper.c ****             break;
 210              		.loc 1 76 0
 211 0088 0DE0     		b	.L6
 212              	.L17:
  77:servos_stepper.c ****         }
  78:servos_stepper.c ****         case 5:
  79:servos_stepper.c ****         {
  80:servos_stepper.c ****              for(i=0; i<3500000; i++)
  81:servos_stepper.c ****                 {
  82:servos_stepper.c ****                  PWM_Lift_WriteCompare(1600);
 213              		.loc 1 82 0 discriminator 3
 214 008a 4FF4C860 		mov	r0, #1600
 215 008e FFF7FEFF 		bl	PWM_Lift_WriteCompare
 216              	.LVL28:
  80:servos_stepper.c ****                 {
 217              		.loc 1 80 0 discriminator 3
 218 0092 0134     		adds	r4, r4, #1
 219              	.LVL29:
 220 0094 00E0     		b	.L12
 221              	.LVL30:
 222              	.L22:
  36:servos_stepper.c ****     {
 223              		.loc 1 36 0
 224 0096 0024     		movs	r4, #0
 225              	.LVL31:
 226              	.L12:
  80:servos_stepper.c ****                 {
 227              		.loc 1 80 0 discriminator 1
 228 0098 084B     		ldr	r3, .L24+16
 229 009a 9C42     		cmp	r4, r3
 230 009c F5DD     		ble	.L17
  83:servos_stepper.c ****                 }
  84:servos_stepper.c ****     
  85:servos_stepper.c ****             PWM_Lift_WriteCompare(1475);
 231              		.loc 1 85 0
 232 009e 40F2C350 		movw	r0, #1475
 233 00a2 FFF7FEFF 		bl	PWM_Lift_WriteCompare
 234              	.LVL32:
 235              	.L6:
  86:servos_stepper.c ****             break;
  87:servos_stepper.c ****         }
  88:servos_stepper.c ****     }
  89:servos_stepper.c ****     
  90:servos_stepper.c ****    
  91:servos_stepper.c ****     return 0;
  92:servos_stepper.c **** }
ARM GAS  C:\Users\daani\AppData\Local\Temp\ccyDs7qg.s 			page 7


 236              		.loc 1 92 0
 237 00a6 0020     		movs	r0, #0
 238 00a8 10BD     		pop	{r4, pc}
 239              	.L25:
 240 00aa 00BF     		.align	2
 241              	.L24:
 242 00ac 3F420F00 		.word	999999
 243 00b0 3F771B00 		.word	1799999
 244 00b4 5F182300 		.word	2299999
 245 00b8 1F402C00 		.word	2899999
 246 00bc DF673500 		.word	3499999
 247              		.cfi_endproc
 248              	.LFE65:
 249              		.size	Lift_Up, .-Lift_Up
 250              		.section	.text.Lift_Down,"ax",%progbits
 251              		.align	2
 252              		.global	Lift_Down
 253              		.thumb
 254              		.thumb_func
 255              		.type	Lift_Down, %function
 256              	Lift_Down:
 257              	.LFB66:
  93:servos_stepper.c **** 
  94:servos_stepper.c **** int Lift_Down()
  95:servos_stepper.c **** {
 258              		.loc 1 95 0
 259              		.cfi_startproc
 260              		@ args = 0, pretend = 0, frame = 0
 261              		@ frame_needed = 0, uses_anonymous_args = 0
 262 0000 10B5     		push	{r4, lr}
 263              		.cfi_def_cfa_offset 8
 264              		.cfi_offset 4, -8
 265              		.cfi_offset 14, -4
 266              	.LVL33:
  96:servos_stepper.c ****     int i = 0;
  97:servos_stepper.c ****     for(i=0; i<1200000; i++)
 267              		.loc 1 97 0
 268 0002 0024     		movs	r4, #0
 269 0004 04E0     		b	.L27
 270              	.LVL34:
 271              	.L28:
  98:servos_stepper.c ****     {
  99:servos_stepper.c ****         PWM_Lift_WriteCompare(1350);
 272              		.loc 1 99 0 discriminator 3
 273 0006 40F24650 		movw	r0, #1350
 274 000a FFF7FEFF 		bl	PWM_Lift_WriteCompare
 275              	.LVL35:
  97:servos_stepper.c ****     {
 276              		.loc 1 97 0 discriminator 3
 277 000e 0134     		adds	r4, r4, #1
 278              	.LVL36:
 279              	.L27:
  97:servos_stepper.c ****     {
 280              		.loc 1 97 0 is_stmt 0 discriminator 1
 281 0010 044B     		ldr	r3, .L30
 282 0012 9C42     		cmp	r4, r3
 283 0014 F7DD     		ble	.L28
ARM GAS  C:\Users\daani\AppData\Local\Temp\ccyDs7qg.s 			page 8


 100:servos_stepper.c ****     }
 101:servos_stepper.c ****     
 102:servos_stepper.c ****     PWM_Lift_WriteCompare(1475);
 284              		.loc 1 102 0 is_stmt 1
 285 0016 40F2C350 		movw	r0, #1475
 286 001a FFF7FEFF 		bl	PWM_Lift_WriteCompare
 287              	.LVL37:
 103:servos_stepper.c ****     return 0;
 104:servos_stepper.c **** }
 288              		.loc 1 104 0
 289 001e 0020     		movs	r0, #0
 290 0020 10BD     		pop	{r4, pc}
 291              	.LVL38:
 292              	.L31:
 293 0022 00BF     		.align	2
 294              	.L30:
 295 0024 7F4F1200 		.word	1199999
 296              		.cfi_endproc
 297              	.LFE66:
 298              		.size	Lift_Down, .-Lift_Down
 299              		.text
 300              	.Letext0:
 301              		.file 2 "c:\\program files (x86)\\cypress\\psoc creator\\4.1\\psoc creator\\import\\gnu\\arm\\5.4.
 302              		.file 3 "c:\\program files (x86)\\cypress\\psoc creator\\4.1\\psoc creator\\import\\gnu\\arm\\5.4.
 303              		.file 4 "Generated_Source\\PSoC5/PWM_Grip.h"
 304              		.file 5 "Generated_Source\\PSoC5/CyLib.h"
 305              		.file 6 "Generated_Source\\PSoC5/PWM_Lift.h"
 306              		.file 7 "Generated_Source\\PSoC5/core_cm3.h"