ARM GAS  C:\Users\daani\AppData\Local\Temp\ccVg9UTH.s 			page 1


   1              		.syntax unified
   2              		.cpu cortex-m3
   3              		.fpu softvfp
   4              		.eabi_attribute 20, 1
   5              		.eabi_attribute 21, 1
   6              		.eabi_attribute 23, 3
   7              		.eabi_attribute 24, 1
   8              		.eabi_attribute 25, 1
   9              		.eabi_attribute 26, 1
  10              		.eabi_attribute 30, 1
  11              		.eabi_attribute 34, 1
  12              		.eabi_attribute 18, 4
  13              		.thumb
  14              		.syntax unified
  15              		.file	"ultrasonics.c"
  16              		.text
  17              	.Ltext0:
  18              		.cfi_sections	.debug_frame
  19              		.global	__aeabi_i2d
  20              		.global	__aeabi_dsub
  21              		.global	__aeabi_ddiv
  22              		.global	__aeabi_d2f
  23              		.section	.text.TimerF_ISR_Handler,"ax",%progbits
  24              		.align	2
  25              		.global	TimerF_ISR_Handler
  26              		.thumb
  27              		.thumb_func
  28              		.type	TimerF_ISR_Handler, %function
  29              	TimerF_ISR_Handler:
  30              	.LFB63:
  31              		.file 1 "ultrasonics.c"
   1:ultrasonics.c **** /* ========================================
   2:ultrasonics.c ****  *
   3:ultrasonics.c ****  * Copyright YOUR COMPANY, THE YEAR
   4:ultrasonics.c ****  * All Rights Reserved
   5:ultrasonics.c ****  * UNPUBLISHED, LICENSED SOFTWARE.
   6:ultrasonics.c ****  *
   7:ultrasonics.c ****  * CONFIDENTIAL AND PROPRIETARY INFORMATION
   8:ultrasonics.c ****  * WHICH IS THE PROPERTY OF your company.
   9:ultrasonics.c ****  *
  10:ultrasonics.c ****  * ========================================
  11:ultrasonics.c **** */
  12:ultrasonics.c **** #include <project.h>
  13:ultrasonics.c **** 
  14:ultrasonics.c **** 
  15:ultrasonics.c **** float FCoord = 0;
  16:ultrasonics.c **** float LeftCoord = 0;
  17:ultrasonics.c **** float RightCoord = 0;
  18:ultrasonics.c **** 
  19:ultrasonics.c **** CY_ISR(TimerF_ISR_Handler) {
  32              		.loc 1 19 0
  33              		.cfi_startproc
  34              		@ args = 0, pretend = 0, frame = 0
  35              		@ frame_needed = 0, uses_anonymous_args = 0
  36 0000 08B5     		push	{r3, lr}
  37              		.cfi_def_cfa_offset 8
  38              		.cfi_offset 3, -8
ARM GAS  C:\Users\daani\AppData\Local\Temp\ccVg9UTH.s 			page 2


  39              		.cfi_offset 14, -4
  20:ultrasonics.c ****   Timer_ULTRASONIC_F_ReadStatusRegister();
  40              		.loc 1 20 0
  41 0002 FFF7FEFF 		bl	Timer_ULTRASONIC_F_ReadStatusRegister
  42              	.LVL0:
  21:ultrasonics.c ****    uint16  TimerCount = Timer_ULTRASONIC_F_ReadCounter();
  43              		.loc 1 21 0
  44 0006 FFF7FEFF 		bl	Timer_ULTRASONIC_F_ReadCounter
  45              	.LVL1:
  22:ultrasonics.c ****   FCoord = (65535.0 - TimerCount) / 58.0; //distance measured in cm
  46              		.loc 1 22 0
  47 000a FFF7FEFF 		bl	__aeabi_i2d
  48              	.LVL2:
  49 000e 0246     		mov	r2, r0
  50 0010 0B46     		mov	r3, r1
  51 0012 07A1     		adr	r1, .L3
  52 0014 D1E90001 		ldrd	r0, [r1]
  53 0018 FFF7FEFF 		bl	__aeabi_dsub
  54              	.LVL3:
  55 001c 0022     		movs	r2, #0
  56 001e 064B     		ldr	r3, .L3+8
  57 0020 FFF7FEFF 		bl	__aeabi_ddiv
  58              	.LVL4:
  59 0024 FFF7FEFF 		bl	__aeabi_d2f
  60              	.LVL5:
  61 0028 044B     		ldr	r3, .L3+12
  62 002a 1860     		str	r0, [r3]	@ float
  63 002c 08BD     		pop	{r3, pc}
  64              	.L4:
  65 002e 00BF     		.align	3
  66              	.L3:
  67 0030 00000000 		.word	0
  68 0034 E0FFEF40 		.word	1089470432
  69 0038 00004D40 		.word	1078788096
  70 003c 00000000 		.word	.LANCHOR0
  71              		.cfi_endproc
  72              	.LFE63:
  73              		.size	TimerF_ISR_Handler, .-TimerF_ISR_Handler
  74              		.section	.text.TimerL_ISR_Handler,"ax",%progbits
  75              		.align	2
  76              		.global	TimerL_ISR_Handler
  77              		.thumb
  78              		.thumb_func
  79              		.type	TimerL_ISR_Handler, %function
  80              	TimerL_ISR_Handler:
  81              	.LFB64:
  23:ultrasonics.c **** }
  24:ultrasonics.c **** 
  25:ultrasonics.c **** CY_ISR(TimerL_ISR_Handler) {
  82              		.loc 1 25 0
  83              		.cfi_startproc
  84              		@ args = 0, pretend = 0, frame = 0
  85              		@ frame_needed = 0, uses_anonymous_args = 0
  86 0000 08B5     		push	{r3, lr}
  87              		.cfi_def_cfa_offset 8
  88              		.cfi_offset 3, -8
  89              		.cfi_offset 14, -4
ARM GAS  C:\Users\daani\AppData\Local\Temp\ccVg9UTH.s 			page 3


  26:ultrasonics.c ****   Timer_ULTRASONIC_L_ReadStatusRegister();
  90              		.loc 1 26 0
  91 0002 FFF7FEFF 		bl	Timer_ULTRASONIC_L_ReadStatusRegister
  92              	.LVL6:
  27:ultrasonics.c ****   uint16  TimerCount = Timer_ULTRASONIC_L_ReadCounter();
  93              		.loc 1 27 0
  94 0006 FFF7FEFF 		bl	Timer_ULTRASONIC_L_ReadCounter
  95              	.LVL7:
  28:ultrasonics.c ****   LeftCoord = (65535.0 - TimerCount) / 58.0; //distance measured in cm
  96              		.loc 1 28 0
  97 000a FFF7FEFF 		bl	__aeabi_i2d
  98              	.LVL8:
  99 000e 0246     		mov	r2, r0
 100 0010 0B46     		mov	r3, r1
 101 0012 07A1     		adr	r1, .L7
 102 0014 D1E90001 		ldrd	r0, [r1]
 103 0018 FFF7FEFF 		bl	__aeabi_dsub
 104              	.LVL9:
 105 001c 0022     		movs	r2, #0
 106 001e 064B     		ldr	r3, .L7+8
 107 0020 FFF7FEFF 		bl	__aeabi_ddiv
 108              	.LVL10:
 109 0024 FFF7FEFF 		bl	__aeabi_d2f
 110              	.LVL11:
 111 0028 044B     		ldr	r3, .L7+12
 112 002a 5860     		str	r0, [r3, #4]	@ float
 113 002c 08BD     		pop	{r3, pc}
 114              	.L8:
 115 002e 00BF     		.align	3
 116              	.L7:
 117 0030 00000000 		.word	0
 118 0034 E0FFEF40 		.word	1089470432
 119 0038 00004D40 		.word	1078788096
 120 003c 00000000 		.word	.LANCHOR0
 121              		.cfi_endproc
 122              	.LFE64:
 123              		.size	TimerL_ISR_Handler, .-TimerL_ISR_Handler
 124              		.section	.text.TimerR_ISR_Handler,"ax",%progbits
 125              		.align	2
 126              		.global	TimerR_ISR_Handler
 127              		.thumb
 128              		.thumb_func
 129              		.type	TimerR_ISR_Handler, %function
 130              	TimerR_ISR_Handler:
 131              	.LFB65:
  29:ultrasonics.c **** }
  30:ultrasonics.c **** 
  31:ultrasonics.c **** CY_ISR(TimerR_ISR_Handler) {
 132              		.loc 1 31 0
 133              		.cfi_startproc
 134              		@ args = 0, pretend = 0, frame = 0
 135              		@ frame_needed = 0, uses_anonymous_args = 0
 136 0000 08B5     		push	{r3, lr}
 137              		.cfi_def_cfa_offset 8
 138              		.cfi_offset 3, -8
 139              		.cfi_offset 14, -4
  32:ultrasonics.c ****   Timer_ULTRASONIC_R_ReadStatusRegister();
ARM GAS  C:\Users\daani\AppData\Local\Temp\ccVg9UTH.s 			page 4


 140              		.loc 1 32 0
 141 0002 FFF7FEFF 		bl	Timer_ULTRASONIC_R_ReadStatusRegister
 142              	.LVL12:
  33:ultrasonics.c ****   uint16 TimerCount = Timer_ULTRASONIC_R_ReadCounter();
 143              		.loc 1 33 0
 144 0006 FFF7FEFF 		bl	Timer_ULTRASONIC_R_ReadCounter
 145              	.LVL13:
  34:ultrasonics.c ****   RightCoord = (65535.0 - TimerCount) / 58.0; //distance measured in cm
 146              		.loc 1 34 0
 147 000a FFF7FEFF 		bl	__aeabi_i2d
 148              	.LVL14:
 149 000e 0246     		mov	r2, r0
 150 0010 0B46     		mov	r3, r1
 151 0012 07A1     		adr	r1, .L11
 152 0014 D1E90001 		ldrd	r0, [r1]
 153 0018 FFF7FEFF 		bl	__aeabi_dsub
 154              	.LVL15:
 155 001c 0022     		movs	r2, #0
 156 001e 064B     		ldr	r3, .L11+8
 157 0020 FFF7FEFF 		bl	__aeabi_ddiv
 158              	.LVL16:
 159 0024 FFF7FEFF 		bl	__aeabi_d2f
 160              	.LVL17:
 161 0028 044B     		ldr	r3, .L11+12
 162 002a 9860     		str	r0, [r3, #8]	@ float
 163 002c 08BD     		pop	{r3, pc}
 164              	.L12:
 165 002e 00BF     		.align	3
 166              	.L11:
 167 0030 00000000 		.word	0
 168 0034 E0FFEF40 		.word	1089470432
 169 0038 00004D40 		.word	1078788096
 170 003c 00000000 		.word	.LANCHOR0
 171              		.cfi_endproc
 172              	.LFE65:
 173              		.size	TimerR_ISR_Handler, .-TimerR_ISR_Handler
 174              		.section	.text.UltraSonic_F,"ax",%progbits
 175              		.align	2
 176              		.global	UltraSonic_F
 177              		.thumb
 178              		.thumb_func
 179              		.type	UltraSonic_F, %function
 180              	UltraSonic_F:
 181              	.LFB66:
  35:ultrasonics.c **** }
  36:ultrasonics.c **** 
  37:ultrasonics.c **** void UltraSonic_F()
  38:ultrasonics.c **** {
 182              		.loc 1 38 0
 183              		.cfi_startproc
 184              		@ args = 0, pretend = 0, frame = 0
 185              		@ frame_needed = 0, uses_anonymous_args = 0
 186 0000 08B5     		push	{r3, lr}
 187              		.cfi_def_cfa_offset 8
 188              		.cfi_offset 3, -8
 189              		.cfi_offset 14, -4
 190              	.LVL18:
ARM GAS  C:\Users\daani\AppData\Local\Temp\ccVg9UTH.s 			page 5


  39:ultrasonics.c ****     int Delay = 60;
  40:ultrasonics.c ****     
  41:ultrasonics.c **** //        isr_F1_StartEx(TimerF1_ISR_Handler);
  42:ultrasonics.c **** //        Timer_ULTRASONIC_F1_Start();
  43:ultrasonics.c ****     
  44:ultrasonics.c ****     while (Echo_F_Read() == 0) {
 191              		.loc 1 44 0
 192 0002 08E0     		b	.L14
 193              	.L15:
  45:ultrasonics.c ****         Trigger_F_Write(1);
 194              		.loc 1 45 0
 195 0004 0120     		movs	r0, #1
 196 0006 FFF7FEFF 		bl	Trigger_F_Write
 197              	.LVL19:
  46:ultrasonics.c ****         CyDelayUs(10);
 198              		.loc 1 46 0
 199 000a 0A20     		movs	r0, #10
 200 000c FFF7FEFF 		bl	CyDelayUs
 201              	.LVL20:
  47:ultrasonics.c ****         Trigger_F_Write(0);  
 202              		.loc 1 47 0
 203 0010 0020     		movs	r0, #0
 204 0012 FFF7FEFF 		bl	Trigger_F_Write
 205              	.LVL21:
 206              	.L14:
  44:ultrasonics.c ****         Trigger_F_Write(1);
 207              		.loc 1 44 0
 208 0016 FFF7FEFF 		bl	Echo_F_Read
 209              	.LVL22:
 210 001a 0028     		cmp	r0, #0
 211 001c F2D0     		beq	.L15
  48:ultrasonics.c ****     }
  49:ultrasonics.c ****     
  50:ultrasonics.c ****     CyDelay(Delay);
 212              		.loc 1 50 0
 213 001e 3C20     		movs	r0, #60
 214 0020 FFF7FEFF 		bl	CyDelay
 215              	.LVL23:
 216 0024 08BD     		pop	{r3, pc}
 217              		.cfi_endproc
 218              	.LFE66:
 219              		.size	UltraSonic_F, .-UltraSonic_F
 220 0026 00BF     		.section	.text.UltraSonic_L,"ax",%progbits
 221              		.align	2
 222              		.global	UltraSonic_L
 223              		.thumb
 224              		.thumb_func
 225              		.type	UltraSonic_L, %function
 226              	UltraSonic_L:
 227              	.LFB67:
  51:ultrasonics.c **** }
  52:ultrasonics.c **** 
  53:ultrasonics.c **** void UltraSonic_L()
  54:ultrasonics.c **** {
 228              		.loc 1 54 0
 229              		.cfi_startproc
 230              		@ args = 0, pretend = 0, frame = 0
ARM GAS  C:\Users\daani\AppData\Local\Temp\ccVg9UTH.s 			page 6


 231              		@ frame_needed = 0, uses_anonymous_args = 0
 232 0000 08B5     		push	{r3, lr}
 233              		.cfi_def_cfa_offset 8
 234              		.cfi_offset 3, -8
 235              		.cfi_offset 14, -4
 236              	.LVL24:
  55:ultrasonics.c ****     int Delay = 60;
  56:ultrasonics.c ****     
  57:ultrasonics.c **** //        isr_F1_StartEx(TimerF1_ISR_Handler);
  58:ultrasonics.c **** //        Timer_ULTRASONIC_F1_Start();
  59:ultrasonics.c ****     
  60:ultrasonics.c ****     while (Echo_L_Read() == 0) {
 237              		.loc 1 60 0
 238 0002 08E0     		b	.L18
 239              	.L19:
  61:ultrasonics.c ****         Trigger_L_Write(1);
 240              		.loc 1 61 0
 241 0004 0120     		movs	r0, #1
 242 0006 FFF7FEFF 		bl	Trigger_L_Write
 243              	.LVL25:
  62:ultrasonics.c ****         CyDelayUs(10);
 244              		.loc 1 62 0
 245 000a 0A20     		movs	r0, #10
 246 000c FFF7FEFF 		bl	CyDelayUs
 247              	.LVL26:
  63:ultrasonics.c ****         Trigger_L_Write(0);  
 248              		.loc 1 63 0
 249 0010 0020     		movs	r0, #0
 250 0012 FFF7FEFF 		bl	Trigger_L_Write
 251              	.LVL27:
 252              	.L18:
  60:ultrasonics.c ****         Trigger_L_Write(1);
 253              		.loc 1 60 0
 254 0016 FFF7FEFF 		bl	Echo_L_Read
 255              	.LVL28:
 256 001a 0028     		cmp	r0, #0
 257 001c F2D0     		beq	.L19
  64:ultrasonics.c ****     }
  65:ultrasonics.c ****     
  66:ultrasonics.c ****     CyDelay(Delay);
 258              		.loc 1 66 0
 259 001e 3C20     		movs	r0, #60
 260 0020 FFF7FEFF 		bl	CyDelay
 261              	.LVL29:
 262 0024 08BD     		pop	{r3, pc}
 263              		.cfi_endproc
 264              	.LFE67:
 265              		.size	UltraSonic_L, .-UltraSonic_L
 266 0026 00BF     		.section	.text.UltraSonic_R,"ax",%progbits
 267              		.align	2
 268              		.global	UltraSonic_R
 269              		.thumb
 270              		.thumb_func
 271              		.type	UltraSonic_R, %function
 272              	UltraSonic_R:
 273              	.LFB68:
  67:ultrasonics.c **** }
ARM GAS  C:\Users\daani\AppData\Local\Temp\ccVg9UTH.s 			page 7


  68:ultrasonics.c **** 
  69:ultrasonics.c **** void UltraSonic_R()
  70:ultrasonics.c **** {
 274              		.loc 1 70 0
 275              		.cfi_startproc
 276              		@ args = 0, pretend = 0, frame = 0
 277              		@ frame_needed = 0, uses_anonymous_args = 0
 278 0000 08B5     		push	{r3, lr}
 279              		.cfi_def_cfa_offset 8
 280              		.cfi_offset 3, -8
 281              		.cfi_offset 14, -4
 282              	.LVL30:
  71:ultrasonics.c ****     int Delay = 60;
  72:ultrasonics.c ****     
  73:ultrasonics.c **** //        isr_F1_StartEx(TimerF1_ISR_Handler);
  74:ultrasonics.c **** //        Timer_ULTRASONIC_F1_Start();
  75:ultrasonics.c ****     
  76:ultrasonics.c ****     while (Echo_R_Read() == 0) {
 283              		.loc 1 76 0
 284 0002 08E0     		b	.L22
 285              	.L23:
  77:ultrasonics.c ****         Trigger_R_Write(1);
 286              		.loc 1 77 0
 287 0004 0120     		movs	r0, #1
 288 0006 FFF7FEFF 		bl	Trigger_R_Write
 289              	.LVL31:
  78:ultrasonics.c ****         CyDelayUs(10);
 290              		.loc 1 78 0
 291 000a 0A20     		movs	r0, #10
 292 000c FFF7FEFF 		bl	CyDelayUs
 293              	.LVL32:
  79:ultrasonics.c ****         Trigger_R_Write(0);  
 294              		.loc 1 79 0
 295 0010 0020     		movs	r0, #0
 296 0012 FFF7FEFF 		bl	Trigger_R_Write
 297              	.LVL33:
 298              	.L22:
  76:ultrasonics.c ****         Trigger_R_Write(1);
 299              		.loc 1 76 0
 300 0016 FFF7FEFF 		bl	Echo_R_Read
 301              	.LVL34:
 302 001a 0028     		cmp	r0, #0
 303 001c F2D0     		beq	.L23
  80:ultrasonics.c ****     }
  81:ultrasonics.c ****     
  82:ultrasonics.c ****     CyDelay(Delay);
 304              		.loc 1 82 0
 305 001e 3C20     		movs	r0, #60
 306 0020 FFF7FEFF 		bl	CyDelay
 307              	.LVL35:
 308 0024 08BD     		pop	{r3, pc}
 309              		.cfi_endproc
 310              	.LFE68:
 311              		.size	UltraSonic_R, .-UltraSonic_R
 312              		.global	RightCoord
 313              		.global	LeftCoord
 314              		.global	FCoord
ARM GAS  C:\Users\daani\AppData\Local\Temp\ccVg9UTH.s 			page 8


 315 0026 00BF     		.bss
 316              		.align	2
 317              		.set	.LANCHOR0,. + 0
 318              		.type	FCoord, %object
 319              		.size	FCoord, 4
 320              	FCoord:
 321 0000 00000000 		.space	4
 322              		.type	LeftCoord, %object
 323              		.size	LeftCoord, 4
 324              	LeftCoord:
 325 0004 00000000 		.space	4
 326              		.type	RightCoord, %object
 327              		.size	RightCoord, 4
 328              	RightCoord:
 329 0008 00000000 		.space	4
 330              		.text
 331              	.Letext0:
 332              		.file 2 "c:\\program files (x86)\\cypress\\psoc creator\\4.1\\psoc creator\\import\\gnu\\arm\\5.4.
 333              		.file 3 "c:\\program files (x86)\\cypress\\psoc creator\\4.1\\psoc creator\\import\\gnu\\arm\\5.4.
 334              		.file 4 "Generated_Source\\PSoC5/cytypes.h"
 335              		.file 5 "Generated_Source\\PSoC5/core_cm3.h"
 336              		.file 6 "Generated_Source\\PSoC5/Timer_ULTRASONIC_F.h"
 337              		.file 7 "Generated_Source\\PSoC5/Timer_ULTRASONIC_L.h"
 338              		.file 8 "Generated_Source\\PSoC5/Timer_ULTRASONIC_R.h"
 339              		.file 9 "Generated_Source\\PSoC5/Trigger_F.h"
 340              		.file 10 "Generated_Source\\PSoC5/CyLib.h"
 341              		.file 11 "Generated_Source\\PSoC5/Echo_F.h"
 342              		.file 12 "Generated_Source\\PSoC5/Trigger_L.h"
 343              		.file 13 "Generated_Source\\PSoC5/Echo_L.h"
 344              		.file 14 "Generated_Source\\PSoC5/Trigger_R.h"
 345              		.file 15 "Generated_Source\\PSoC5/Echo_R.h"