ARM GAS  C:\Users\DAANIS~1\AppData\Local\Temp\cccFhzea.s 			page 1


   1              		.syntax unified
   2              		.cpu cortex-m3
   3              		.fpu softvfp
   4              		.eabi_attribute 20, 1
   5              		.eabi_attribute 21, 1
   6              		.eabi_attribute 23, 3
   7              		.eabi_attribute 24, 1
   8              		.eabi_attribute 25, 1
   9              		.eabi_attribute 26, 1
  10              		.eabi_attribute 30, 1
  11              		.eabi_attribute 34, 1
  12              		.eabi_attribute 18, 4
  13              		.thumb
  14              		.syntax unified
  15              		.file	"wheels.c"
  16              		.text
  17              	.Ltext0:
  18              		.cfi_sections	.debug_frame
  19              		.global	__aeabi_fmul
  20              		.global	__aeabi_fdiv
  21              		.global	__aeabi_f2uiz
  22              		.section	.text.LeftMotor,"ax",%progbits
  23              		.align	2
  24              		.global	LeftMotor
  25              		.thumb
  26              		.thumb_func
  27              		.type	LeftMotor, %function
  28              	LeftMotor:
  29              	.LFB63:
  30              		.file 1 "wheels.c"
   1:wheels.c      **** /* ========================================
   2:wheels.c      ****  *
   3:wheels.c      ****  * Copyright YOUR COMPANY, THE YEAR
   4:wheels.c      ****  * All Rights Reserved
   5:wheels.c      ****  * UNPUBLISHED, LICENSED SOFTWARE.
   6:wheels.c      ****  *
   7:wheels.c      ****  * CONFIDENTIAL AND PROPRIETARY INFORMATION
   8:wheels.c      ****  * WHICH IS THE PROPERTY OF your company.
   9:wheels.c      ****  *
  10:wheels.c      ****  * ========================================
  11:wheels.c      **** */
  12:wheels.c      **** #include <project.h>
  13:wheels.c      **** #include <stdlib.h>
  14:wheels.c      **** 
  15:wheels.c      **** float LeftDelta = 290.0; // Ratio to convert shaft count to distance
  16:wheels.c      **** 
  17:wheels.c      **** void LeftMotor(float speed, int direction)
  18:wheels.c      **** {
  31              		.loc 1 18 0
  32              		.cfi_startproc
  33              		@ args = 0, pretend = 0, frame = 0
  34              		@ frame_needed = 0, uses_anonymous_args = 0
  35              	.LVL0:
  36 0000 38B5     		push	{r3, r4, r5, lr}
  37              		.cfi_def_cfa_offset 16
  38              		.cfi_offset 3, -16
  39              		.cfi_offset 4, -12
ARM GAS  C:\Users\DAANIS~1\AppData\Local\Temp\cccFhzea.s 			page 2


  40              		.cfi_offset 5, -8
  41              		.cfi_offset 14, -4
  42 0002 0D46     		mov	r5, r1
  19:wheels.c      ****         speed = (65535*speed)/100.0;      // speed as duty cycle
  43              		.loc 1 19 0
  44 0004 0949     		ldr	r1, .L3
  45              	.LVL1:
  46 0006 FFF7FEFF 		bl	__aeabi_fmul
  47              	.LVL2:
  48 000a 0949     		ldr	r1, .L3+4
  49 000c FFF7FEFF 		bl	__aeabi_fdiv
  50              	.LVL3:
  51 0010 0446     		mov	r4, r0
  52              	.LVL4:
  20:wheels.c      ****         M1_Direction_Write(direction);  // write 1 or 0 for direction
  53              		.loc 1 20 0
  54 0012 E8B2     		uxtb	r0, r5
  55              	.LVL5:
  56 0014 FFF7FEFF 		bl	M1_Direction_Write
  57              	.LVL6:
  21:wheels.c      ****         PWM_M1_WriteCompare(speed);     // write speed in terms of duty cycle// start left PWM
  58              		.loc 1 21 0
  59 0018 2046     		mov	r0, r4
  60 001a FFF7FEFF 		bl	__aeabi_f2uiz
  61              	.LVL7:
  62 001e 80B2     		uxth	r0, r0
  63 0020 FFF7FEFF 		bl	PWM_M1_WriteCompare
  64              	.LVL8:
  22:wheels.c      ****         PWM_M1_Start();
  65              		.loc 1 22 0
  66 0024 FFF7FEFF 		bl	PWM_M1_Start
  67              	.LVL9:
  68 0028 38BD     		pop	{r3, r4, r5, pc}
  69              	.LVL10:
  70              	.L4:
  71 002a 00BF     		.align	2
  72              	.L3:
  73 002c 00FF7F47 		.word	1199570688
  74 0030 0000C842 		.word	1120403456
  75              		.cfi_endproc
  76              	.LFE63:
  77              		.size	LeftMotor, .-LeftMotor
  78              		.section	.text.RightMotor,"ax",%progbits
  79              		.align	2
  80              		.global	RightMotor
  81              		.thumb
  82              		.thumb_func
  83              		.type	RightMotor, %function
  84              	RightMotor:
  85              	.LFB64:
  23:wheels.c      **** }
  24:wheels.c      **** 
  25:wheels.c      **** void RightMotor(float speed, int direction)
  26:wheels.c      **** {
  86              		.loc 1 26 0
  87              		.cfi_startproc
  88              		@ args = 0, pretend = 0, frame = 0
ARM GAS  C:\Users\DAANIS~1\AppData\Local\Temp\cccFhzea.s 			page 3


  89              		@ frame_needed = 0, uses_anonymous_args = 0
  90              	.LVL11:
  91 0000 38B5     		push	{r3, r4, r5, lr}
  92              		.cfi_def_cfa_offset 16
  93              		.cfi_offset 3, -16
  94              		.cfi_offset 4, -12
  95              		.cfi_offset 5, -8
  96              		.cfi_offset 14, -4
  97 0002 0D46     		mov	r5, r1
  27:wheels.c      ****         speed = (65535*speed)/100.0;      // speed as duty cycle
  98              		.loc 1 27 0
  99 0004 0949     		ldr	r1, .L7
 100              	.LVL12:
 101 0006 FFF7FEFF 		bl	__aeabi_fmul
 102              	.LVL13:
 103 000a 0949     		ldr	r1, .L7+4
 104 000c FFF7FEFF 		bl	__aeabi_fdiv
 105              	.LVL14:
 106 0010 0446     		mov	r4, r0
 107              	.LVL15:
  28:wheels.c      ****         M2_Direction_Write(direction);  // write 1 or 0 for direction
 108              		.loc 1 28 0
 109 0012 E8B2     		uxtb	r0, r5
 110              	.LVL16:
 111 0014 FFF7FEFF 		bl	M2_Direction_Write
 112              	.LVL17:
  29:wheels.c      ****         PWM_M2_WriteCompare(speed);     // write speed in terms of duty cycle
 113              		.loc 1 29 0
 114 0018 2046     		mov	r0, r4
 115 001a FFF7FEFF 		bl	__aeabi_f2uiz
 116              	.LVL18:
 117 001e 80B2     		uxth	r0, r0
 118 0020 FFF7FEFF 		bl	PWM_M2_WriteCompare
 119              	.LVL19:
  30:wheels.c      ****         PWM_M2_Start();                 // start left PWM   
 120              		.loc 1 30 0
 121 0024 FFF7FEFF 		bl	PWM_M2_Start
 122              	.LVL20:
 123 0028 38BD     		pop	{r3, r4, r5, pc}
 124              	.LVL21:
 125              	.L8:
 126 002a 00BF     		.align	2
 127              	.L7:
 128 002c 00FF7F47 		.word	1199570688
 129 0030 0000C842 		.word	1120403456
 130              		.cfi_endproc
 131              	.LFE64:
 132              		.size	RightMotor, .-RightMotor
 133              		.global	__aeabi_i2f
 134              		.global	__aeabi_fcmpge
 135              		.section	.text.Turn,"ax",%progbits
 136              		.align	2
 137              		.global	Turn
 138              		.thumb
 139              		.thumb_func
 140              		.type	Turn, %function
 141              	Turn:
ARM GAS  C:\Users\DAANIS~1\AppData\Local\Temp\cccFhzea.s 			page 4


 142              	.LFB65:
  31:wheels.c      **** }
  32:wheels.c      **** 
  33:wheels.c      **** 
  34:wheels.c      **** void Turn(float speed, float Distance, int Direction)
  35:wheels.c      **** {
 143              		.loc 1 35 0
 144              		.cfi_startproc
 145              		@ args = 0, pretend = 0, frame = 0
 146              		@ frame_needed = 0, uses_anonymous_args = 0
 147              	.LVL22:
 148 0000 70B5     		push	{r4, r5, r6, lr}
 149              		.cfi_def_cfa_offset 16
 150              		.cfi_offset 4, -16
 151              		.cfi_offset 5, -12
 152              		.cfi_offset 6, -8
 153              		.cfi_offset 14, -4
 154 0002 0546     		mov	r5, r0
 155 0004 0E46     		mov	r6, r1
 156 0006 1446     		mov	r4, r2
  36:wheels.c      ****     QuadDec_Left_SetCounter(0);
 157              		.loc 1 36 0
 158 0008 0020     		movs	r0, #0
 159              	.LVL23:
 160 000a FFF7FEFF 		bl	QuadDec_Left_SetCounter
 161              	.LVL24:
  37:wheels.c      ****     QuadDec_Right_SetCounter(0);
 162              		.loc 1 37 0
 163 000e 0020     		movs	r0, #0
 164 0010 FFF7FEFF 		bl	QuadDec_Right_SetCounter
 165              	.LVL25:
 166              	.L10:
 167              	.LBB2:
  38:wheels.c      **** 
  39:wheels.c      ****     for(;;)
  40:wheels.c      ****     {
  41:wheels.c      **** 		LeftMotor(speed,~Direction);
 168              		.loc 1 41 0
 169 0014 E143     		mvns	r1, r4
 170 0016 2846     		mov	r0, r5
 171 0018 FFF7FEFF 		bl	LeftMotor
 172              	.LVL26:
  42:wheels.c      ****     	RightMotor(speed,Direction);
 173              		.loc 1 42 0
 174 001c 2146     		mov	r1, r4
 175 001e 2846     		mov	r0, r5
 176 0020 FFF7FEFF 		bl	RightMotor
 177              	.LVL27:
  43:wheels.c      ****     	
  44:wheels.c      ****         float tempCount = fabs((float)QuadDec_Left_GetCounter() / LeftDelta);
 178              		.loc 1 44 0
 179 0024 FFF7FEFF 		bl	QuadDec_Left_GetCounter
 180              	.LVL28:
 181 0028 FFF7FEFF 		bl	__aeabi_i2f
 182              	.LVL29:
 183 002c 074B     		ldr	r3, .L14
 184 002e 1968     		ldr	r1, [r3]	@ float
ARM GAS  C:\Users\DAANIS~1\AppData\Local\Temp\cccFhzea.s 			page 5


 185 0030 FFF7FEFF 		bl	__aeabi_fdiv
 186              	.LVL30:
 187 0034 20F00040 		bic	r0, r0, #-2147483648
 188              	.LVL31:
  45:wheels.c      **** 		
  46:wheels.c      ****     	if ( tempCount >= Distance)
 189              		.loc 1 46 0
 190 0038 3146     		mov	r1, r6
 191 003a FFF7FEFF 		bl	__aeabi_fcmpge
 192              	.LVL32:
 193 003e 0028     		cmp	r0, #0
 194 0040 E8D0     		beq	.L10
  47:wheels.c      ****     	{
  48:wheels.c      **** 			PWM_M1_Stop();                 // stop left PWM
 195              		.loc 1 48 0
 196 0042 FFF7FEFF 		bl	PWM_M1_Stop
 197              	.LVL33:
  49:wheels.c      ****     		PWM_M2_Stop();                 // stop right PWM
 198              		.loc 1 49 0
 199 0046 FFF7FEFF 		bl	PWM_M2_Stop
 200              	.LVL34:
 201 004a 70BD     		pop	{r4, r5, r6, pc}
 202              	.LVL35:
 203              	.L15:
 204              		.align	2
 205              	.L14:
 206 004c 00000000 		.word	.LANCHOR0
 207              	.LBE2:
 208              		.cfi_endproc
 209              	.LFE65:
 210              		.size	Turn, .-Turn
 211              		.global	__aeabi_fcmplt
 212              		.section	.text.MoveStraight,"ax",%progbits
 213              		.align	2
 214              		.global	MoveStraight
 215              		.thumb
 216              		.thumb_func
 217              		.type	MoveStraight, %function
 218              	MoveStraight:
 219              	.LFB66:
  50:wheels.c      ****             break;
  51:wheels.c      ****     	}
  52:wheels.c      ****     }
  53:wheels.c      ****     
  54:wheels.c      **** }
  55:wheels.c      **** 
  56:wheels.c      **** 
  57:wheels.c      **** void MoveStraight(float FinalSpeed, float Distance, int Direction)
  58:wheels.c      **** {
 220              		.loc 1 58 0
 221              		.cfi_startproc
 222              		@ args = 0, pretend = 0, frame = 0
 223              		@ frame_needed = 0, uses_anonymous_args = 0
 224              	.LVL36:
 225 0000 F8B5     		push	{r3, r4, r5, r6, r7, lr}
 226              		.cfi_def_cfa_offset 24
 227              		.cfi_offset 3, -24
ARM GAS  C:\Users\DAANIS~1\AppData\Local\Temp\cccFhzea.s 			page 6


 228              		.cfi_offset 4, -20
 229              		.cfi_offset 5, -16
 230              		.cfi_offset 6, -12
 231              		.cfi_offset 7, -8
 232              		.cfi_offset 14, -4
 233 0002 0546     		mov	r5, r0
 234 0004 0F46     		mov	r7, r1
 235 0006 1446     		mov	r4, r2
 236              	.LVL37:
  59:wheels.c      ****     float LeftSpeed = 30 - 0.15;
  60:wheels.c      ****     float RightSpeed = 30;
  61:wheels.c      ****     QuadDec_Right_SetCounter(0);
 237              		.loc 1 61 0
 238 0008 0020     		movs	r0, #0
 239              	.LVL38:
 240 000a FFF7FEFF 		bl	QuadDec_Right_SetCounter
 241              	.LVL39:
  62:wheels.c      ****     QuadDec_Left_SetCounter(0);
 242              		.loc 1 62 0
 243 000e 0020     		movs	r0, #0
 244 0010 FFF7FEFF 		bl	QuadDec_Left_SetCounter
 245              	.LVL40:
  63:wheels.c      ****     LeftMotor(LeftSpeed,Direction);
 246              		.loc 1 63 0
 247 0014 2146     		mov	r1, r4
 248 0016 2548     		ldr	r0, .L23
 249 0018 FFF7FEFF 		bl	LeftMotor
 250              	.LVL41:
  64:wheels.c      **** 	RightMotor(RightSpeed,Direction);
 251              		.loc 1 64 0
 252 001c 2146     		mov	r1, r4
 253 001e 2448     		ldr	r0, .L23+4
 254 0020 FFF7FEFF 		bl	RightMotor
 255              	.LVL42:
  65:wheels.c      ****     
  66:wheels.c      ****     while(QuadDec_Left_GetCounter() < 5 * LeftDelta)   // Wait for couts of Shaft Encoder to settle
 256              		.loc 1 66 0
 257 0024 07E0     		b	.L17
 258              	.L18:
  67:wheels.c      ****     {
  68:wheels.c      **** 		LeftMotor(LeftSpeed,Direction);
 259              		.loc 1 68 0
 260 0026 2146     		mov	r1, r4
 261 0028 2048     		ldr	r0, .L23
 262 002a FFF7FEFF 		bl	LeftMotor
 263              	.LVL43:
  69:wheels.c      **** 		RightMotor(RightSpeed,Direction);
 264              		.loc 1 69 0
 265 002e 2146     		mov	r1, r4
 266 0030 1F48     		ldr	r0, .L23+4
 267 0032 FFF7FEFF 		bl	RightMotor
 268              	.LVL44:
 269              	.L17:
  66:wheels.c      ****     {
 270              		.loc 1 66 0
 271 0036 FFF7FEFF 		bl	QuadDec_Left_GetCounter
 272              	.LVL45:
ARM GAS  C:\Users\DAANIS~1\AppData\Local\Temp\cccFhzea.s 			page 7


 273 003a FFF7FEFF 		bl	__aeabi_i2f
 274              	.LVL46:
 275 003e 0646     		mov	r6, r0
 276 0040 1C49     		ldr	r1, .L23+8
 277 0042 1D4B     		ldr	r3, .L23+12
 278 0044 1868     		ldr	r0, [r3]	@ float
 279 0046 FFF7FEFF 		bl	__aeabi_fmul
 280              	.LVL47:
 281 004a 0146     		mov	r1, r0
 282 004c 3046     		mov	r0, r6
 283 004e FFF7FEFF 		bl	__aeabi_fcmplt
 284              	.LVL48:
 285 0052 0028     		cmp	r0, #0
 286 0054 E7D1     		bne	.L18
 287              	.LVL49:
 288              	.L19:
 289              	.LBB3:
  70:wheels.c      ****     }
  71:wheels.c      ****     
  72:wheels.c      **** 	for(;;)
  73:wheels.c      **** 		{        
  74:wheels.c      ****        
  75:wheels.c      ****         RightSpeed = FinalSpeed * (float)QuadDec_Left_GetCounter()/ (float)QuadDec_Right_GetCounter
 290              		.loc 1 75 0
 291 0056 FFF7FEFF 		bl	QuadDec_Left_GetCounter
 292              	.LVL50:
 293 005a FFF7FEFF 		bl	__aeabi_i2f
 294              	.LVL51:
 295 005e 2946     		mov	r1, r5
 296 0060 FFF7FEFF 		bl	__aeabi_fmul
 297              	.LVL52:
 298 0064 0646     		mov	r6, r0
 299 0066 FFF7FEFF 		bl	QuadDec_Right_GetCounter
 300              	.LVL53:
 301 006a FFF7FEFF 		bl	__aeabi_i2f
 302              	.LVL54:
 303 006e 0146     		mov	r1, r0
 304 0070 3046     		mov	r0, r6
 305 0072 FFF7FEFF 		bl	__aeabi_fdiv
 306              	.LVL55:
  76:wheels.c      ****     	RightMotor(RightSpeed,Direction);
 307              		.loc 1 76 0
 308 0076 2146     		mov	r1, r4
 309 0078 FFF7FEFF 		bl	RightMotor
 310              	.LVL56:
  77:wheels.c      ****     	LeftMotor(FinalSpeed,Direction);
 311              		.loc 1 77 0
 312 007c 2146     		mov	r1, r4
 313 007e 2846     		mov	r0, r5
 314 0080 FFF7FEFF 		bl	LeftMotor
 315              	.LVL57:
  78:wheels.c      ****         float tempCount = fabs((float)QuadDec_Left_GetCounter() / LeftDelta);
 316              		.loc 1 78 0
 317 0084 FFF7FEFF 		bl	QuadDec_Left_GetCounter
 318              	.LVL58:
 319 0088 FFF7FEFF 		bl	__aeabi_i2f
 320              	.LVL59:
ARM GAS  C:\Users\DAANIS~1\AppData\Local\Temp\cccFhzea.s 			page 8


 321 008c 0A4B     		ldr	r3, .L23+12
 322 008e 1968     		ldr	r1, [r3]	@ float
 323 0090 FFF7FEFF 		bl	__aeabi_fdiv
 324              	.LVL60:
 325 0094 20F00040 		bic	r0, r0, #-2147483648
 326              	.LVL61:
  79:wheels.c      **** 
  80:wheels.c      ****     	if ( tempCount >= Distance)
 327              		.loc 1 80 0
 328 0098 3946     		mov	r1, r7
 329 009a FFF7FEFF 		bl	__aeabi_fcmpge
 330              	.LVL62:
 331 009e 0028     		cmp	r0, #0
 332 00a0 D9D0     		beq	.L19
  81:wheels.c      ****     	{
  82:wheels.c      **** 			PWM_M1_Stop();                 // stop left PWM
 333              		.loc 1 82 0
 334 00a2 FFF7FEFF 		bl	PWM_M1_Stop
 335              	.LVL63:
  83:wheels.c      ****     		PWM_M2_Stop();                 // stop right PWM
 336              		.loc 1 83 0
 337 00a6 FFF7FEFF 		bl	PWM_M2_Stop
 338              	.LVL64:
 339 00aa F8BD     		pop	{r3, r4, r5, r6, r7, pc}
 340              	.LVL65:
 341              	.L24:
 342              		.align	2
 343              	.L23:
 344 00ac CDCCEE41 		.word	1106169037
 345 00b0 0000F041 		.word	1106247680
 346 00b4 0000A040 		.word	1084227584
 347 00b8 00000000 		.word	.LANCHOR0
 348              	.LBE3:
 349              		.cfi_endproc
 350              	.LFE66:
 351              		.size	MoveStraight, .-MoveStraight
 352              		.section	.text.ParallelRobot,"ax",%progbits
 353              		.align	2
 354              		.global	ParallelRobot
 355              		.thumb
 356              		.thumb_func
 357              		.type	ParallelRobot, %function
 358              	ParallelRobot:
 359              	.LFB67:
  84:wheels.c      ****             break;
  85:wheels.c      ****     	}
  86:wheels.c      ****            
  87:wheels.c      **** 		}
  88:wheels.c      ****    
  89:wheels.c      **** }
  90:wheels.c      **** void ParallelRobot() // NOTE: THIS FUNCTION IS OBSOLETE AND WILL NOT WORK.
  91:wheels.c      ****                      // MICROS NEED TO BE IMPLEMENTED WITH INTERRUPTS
  92:wheels.c      **** {   
 360              		.loc 1 92 0
 361              		.cfi_startproc
 362              		@ args = 0, pretend = 0, frame = 0
 363              		@ frame_needed = 0, uses_anonymous_args = 0
ARM GAS  C:\Users\DAANIS~1\AppData\Local\Temp\cccFhzea.s 			page 9


 364 0000 10B5     		push	{r4, lr}
 365              		.cfi_def_cfa_offset 8
 366              		.cfi_offset 4, -8
 367              		.cfi_offset 14, -4
  93:wheels.c      **** //    while (Left_bumper_Read() == 1 || Right_bumper_Read() == 1) 
  94:wheels.c      **** //    {
  95:wheels.c      **** //        LeftMotor(50,0);
  96:wheels.c      **** //        RightMotor(50,0);
  97:wheels.c      **** //        
  98:wheels.c      **** //        if (Left_bumper_Read() == 0 && Right_bumper_Read() == 0) 
  99:wheels.c      **** //        {
 100:wheels.c      **** //            PWM_M2_Stop(); // stop left PWM
 101:wheels.c      **** //            PWM_M1_Stop(); // stop right PWM
 102:wheels.c      **** //            break;
 103:wheels.c      **** //        }
 104:wheels.c      **** //    }
 105:wheels.c      ****     
 106:wheels.c      ****     LeftMotor(50,0);
 368              		.loc 1 106 0
 369 0002 1B4C     		ldr	r4, .L33
 370 0004 0021     		movs	r1, #0
 371 0006 2046     		mov	r0, r4
 372 0008 FFF7FEFF 		bl	LeftMotor
 373              	.LVL66:
 107:wheels.c      ****     RightMotor(50,0);
 374              		.loc 1 107 0
 375 000c 0021     		movs	r1, #0
 376 000e 2046     		mov	r0, r4
 377 0010 FFF7FEFF 		bl	RightMotor
 378              	.LVL67:
 108:wheels.c      ****     
 109:wheels.c      ****         while (Left_bumper_Read() == 0 || Right_bumper_Read() == 0) 
 379              		.loc 1 109 0
 380 0014 22E0     		b	.L26
 381              	.L31:
 110:wheels.c      ****     {
 111:wheels.c      **** 
 112:wheels.c      ****         if (Left_bumper_Read() == 1) 
 382              		.loc 1 112 0
 383 0016 FFF7FEFF 		bl	Left_bumper_Read
 384              	.LVL68:
 385 001a 0128     		cmp	r0, #1
 386 001c 06D1     		bne	.L27
 113:wheels.c      ****         {
 114:wheels.c      ****             RightMotor(50,0);
 387              		.loc 1 114 0
 388 001e 0021     		movs	r1, #0
 389 0020 1348     		ldr	r0, .L33
 390 0022 FFF7FEFF 		bl	RightMotor
 391              	.LVL69:
 115:wheels.c      ****             PWM_M1_Stop(); // stop left PWM
 392              		.loc 1 115 0
 393 0026 FFF7FEFF 		bl	PWM_M1_Stop
 394              	.LVL70:
 395 002a 17E0     		b	.L26
 396              	.L27:
 116:wheels.c      ****         }
ARM GAS  C:\Users\DAANIS~1\AppData\Local\Temp\cccFhzea.s 			page 10


 117:wheels.c      ****         
 118:wheels.c      ****         else if (Right_bumper_Read() == 1) 
 397              		.loc 1 118 0
 398 002c FFF7FEFF 		bl	Right_bumper_Read
 399              	.LVL71:
 400 0030 0128     		cmp	r0, #1
 401 0032 06D1     		bne	.L29
 119:wheels.c      ****         {
 120:wheels.c      ****             LeftMotor(50,0);
 402              		.loc 1 120 0
 403 0034 0021     		movs	r1, #0
 404 0036 0E48     		ldr	r0, .L33
 405 0038 FFF7FEFF 		bl	LeftMotor
 406              	.LVL72:
 121:wheels.c      ****             PWM_M2_Stop(); // stop left PWM
 407              		.loc 1 121 0
 408 003c FFF7FEFF 		bl	PWM_M2_Stop
 409              	.LVL73:
 410 0040 0CE0     		b	.L26
 411              	.L29:
 122:wheels.c      ****         }
 123:wheels.c      ****         
 124:wheels.c      ****         else if (Left_bumper_Read() == 1 && Right_bumper_Read() == 1) 
 412              		.loc 1 124 0
 413 0042 FFF7FEFF 		bl	Left_bumper_Read
 414              	.LVL74:
 415 0046 0128     		cmp	r0, #1
 416 0048 08D1     		bne	.L26
 417              		.loc 1 124 0 is_stmt 0 discriminator 1
 418 004a FFF7FEFF 		bl	Right_bumper_Read
 419              	.LVL75:
 420 004e 0128     		cmp	r0, #1
 421 0050 04D1     		bne	.L26
 125:wheels.c      ****         {
 126:wheels.c      ****             PWM_M1_Stop(); // stop left PWM
 422              		.loc 1 126 0 is_stmt 1
 423 0052 FFF7FEFF 		bl	PWM_M1_Stop
 424              	.LVL76:
 127:wheels.c      ****             PWM_M2_Stop(); // stop right PWM
 425              		.loc 1 127 0
 426 0056 FFF7FEFF 		bl	PWM_M2_Stop
 427              	.LVL77:
 128:wheels.c      ****             break;
 428              		.loc 1 128 0
 429 005a 10BD     		pop	{r4, pc}
 430              	.L26:
 109:wheels.c      ****     {
 431              		.loc 1 109 0
 432 005c FFF7FEFF 		bl	Left_bumper_Read
 433              	.LVL78:
 434 0060 0028     		cmp	r0, #0
 435 0062 D8D0     		beq	.L31
 109:wheels.c      ****     {
 436              		.loc 1 109 0 is_stmt 0 discriminator 1
 437 0064 FFF7FEFF 		bl	Right_bumper_Read
 438              	.LVL79:
 439 0068 0028     		cmp	r0, #0
ARM GAS  C:\Users\DAANIS~1\AppData\Local\Temp\cccFhzea.s 			page 11


 440 006a D4D0     		beq	.L31
 441 006c 10BD     		pop	{r4, pc}
 442              	.L34:
 443 006e 00BF     		.align	2
 444              	.L33:
 445 0070 00004842 		.word	1112014848
 446              		.cfi_endproc
 447              	.LFE67:
 448              		.size	ParallelRobot, .-ParallelRobot
 449              		.global	LeftDelta
 450              		.data
 451              		.align	2
 452              		.set	.LANCHOR0,. + 0
 453              		.type	LeftDelta, %object
 454              		.size	LeftDelta, 4
 455              	LeftDelta:
 456 0000 00009143 		.word	1133576192
 457              		.text
 458              	.Letext0:
 459              		.file 2 "c:\\program files (x86)\\cypress\\psoc creator\\4.1\\psoc creator\\import\\gnu\\arm\\5.4.
 460              		.file 3 "c:\\program files (x86)\\cypress\\psoc creator\\4.1\\psoc creator\\import\\gnu\\arm\\5.4.
 461              		.file 4 "<built-in>"
 462              		.file 5 "Generated_Source\\PSoC5/core_cm3.h"
 463              		.file 6 "Generated_Source\\PSoC5/M1_Direction.h"
 464              		.file 7 "Generated_Source\\PSoC5/PWM_M1.h"
 465              		.file 8 "Generated_Source\\PSoC5/M2_Direction.h"
 466              		.file 9 "Generated_Source\\PSoC5/PWM_M2.h"
 467              		.file 10 "Generated_Source\\PSoC5/QuadDec_Left.h"
 468              		.file 11 "Generated_Source\\PSoC5/QuadDec_Right.h"
 469              		.file 12 "Generated_Source\\PSoC5/Left_bumper.h"
 470              		.file 13 "Generated_Source\\PSoC5/Right_bumper.h"